Archive member included because of file (symbol)

/home/jin/local/avr/lib/gcc/avr/4.6.3/../../../../avr/lib/avr6/libm.a(addsf3.o)
                              build/mighty_one-2560/MightyBoard/Motherboard/Command.o (__subsf3)
/home/jin/local/avr/lib/gcc/avr/4.6.3/../../../../avr/lib/avr6/libm.a(addsf3x.o)
                              /home/jin/local/avr/lib/gcc/avr/4.6.3/../../../../avr/lib/avr6/libm.a(addsf3.o) (__addsf3x)
/home/jin/local/avr/lib/gcc/avr/4.6.3/../../../../avr/lib/avr6/libm.a(ceil.o)
                              build/mighty_one-2560/MightyBoard/Motherboard/StepperAccel.o (ceil)
/home/jin/local/avr/lib/gcc/avr/4.6.3/../../../../avr/lib/avr6/libm.a(cmpsf2.o)
                              build/mighty_one-2560/MightyBoard/Motherboard/Steppers.o (__eqsf2)
/home/jin/local/avr/lib/gcc/avr/4.6.3/../../../../avr/lib/avr6/libm.a(divsf3.o)
                              build/mighty_one-2560/MightyBoard/Motherboard/Command.o (__divsf3)
/home/jin/local/avr/lib/gcc/avr/4.6.3/../../../../avr/lib/avr6/libm.a(divsf3x.o)
                              /home/jin/local/avr/lib/gcc/avr/4.6.3/../../../../avr/lib/avr6/libm.a(divsf3.o) (__divsf3x)
/home/jin/local/avr/lib/gcc/avr/4.6.3/../../../../avr/lib/avr6/libm.a(fixsfdi.o)
                              build/mighty_one-2560/MightyBoard/Motherboard/StepperAxis.o (__fixsfdi)
/home/jin/local/avr/lib/gcc/avr/4.6.3/../../../../avr/lib/avr6/libm.a(fixsfsi.o)
                              build/mighty_one-2560/MightyBoard/Motherboard/Command.o (__fixsfsi)
/home/jin/local/avr/lib/gcc/avr/4.6.3/../../../../avr/lib/avr6/libm.a(fixunssfsi.o)
                              build/mighty_one-2560/MightyBoard/Motherboard/Command.o (__fixunssfsi)
/home/jin/local/avr/lib/gcc/avr/4.6.3/../../../../avr/lib/avr6/libm.a(floatsisf.o)
                              build/mighty_one-2560/MightyBoard/Motherboard/Command.o (__floatunsisf)
/home/jin/local/avr/lib/gcc/avr/4.6.3/../../../../avr/lib/avr6/libm.a(fp_cmp.o)
                              /home/jin/local/avr/lib/gcc/avr/4.6.3/../../../../avr/lib/avr6/libm.a(cmpsf2.o) (__fp_cmp)
/home/jin/local/avr/lib/gcc/avr/4.6.3/../../../../avr/lib/avr6/libm.a(fp_inf.o)
                              /home/jin/local/avr/lib/gcc/avr/4.6.3/../../../../avr/lib/avr6/libm.a(addsf3x.o) (__fp_inf)
/home/jin/local/avr/lib/gcc/avr/4.6.3/../../../../avr/lib/avr6/libm.a(fp_mintl.o)
                              /home/jin/local/avr/lib/gcc/avr/4.6.3/../../../../avr/lib/avr6/libm.a(ceil.o) (__fp_mintl)
/home/jin/local/avr/lib/gcc/avr/4.6.3/../../../../avr/lib/avr6/libm.a(fp_mpack.o)
                              /home/jin/local/avr/lib/gcc/avr/4.6.3/../../../../avr/lib/avr6/libm.a(ceil.o) (__fp_mpack)
/home/jin/local/avr/lib/gcc/avr/4.6.3/../../../../avr/lib/avr6/libm.a(fp_nan.o)
                              /home/jin/local/avr/lib/gcc/avr/4.6.3/../../../../avr/lib/avr6/libm.a(addsf3x.o) (__fp_nan)
/home/jin/local/avr/lib/gcc/avr/4.6.3/../../../../avr/lib/avr6/libm.a(fp_negdi.o)
                              /home/jin/local/avr/lib/gcc/avr/4.6.3/../../../../avr/lib/avr6/libm.a(fixsfdi.o) (__fp_negdi)
/home/jin/local/avr/lib/gcc/avr/4.6.3/../../../../avr/lib/avr6/libm.a(fp_pscA.o)
                              /home/jin/local/avr/lib/gcc/avr/4.6.3/../../../../avr/lib/avr6/libm.a(addsf3x.o) (__fp_pscA)
/home/jin/local/avr/lib/gcc/avr/4.6.3/../../../../avr/lib/avr6/libm.a(fp_pscB.o)
                              /home/jin/local/avr/lib/gcc/avr/4.6.3/../../../../avr/lib/avr6/libm.a(addsf3x.o) (__fp_pscB)
/home/jin/local/avr/lib/gcc/avr/4.6.3/../../../../avr/lib/avr6/libm.a(fp_round.o)
                              /home/jin/local/avr/lib/gcc/avr/4.6.3/../../../../avr/lib/avr6/libm.a(addsf3.o) (__fp_round)
/home/jin/local/avr/lib/gcc/avr/4.6.3/../../../../avr/lib/avr6/libm.a(fp_split3.o)
                              /home/jin/local/avr/lib/gcc/avr/4.6.3/../../../../avr/lib/avr6/libm.a(addsf3x.o) (__fp_split3)
/home/jin/local/avr/lib/gcc/avr/4.6.3/../../../../avr/lib/avr6/libm.a(fp_trunc.o)
                              /home/jin/local/avr/lib/gcc/avr/4.6.3/../../../../avr/lib/avr6/libm.a(ceil.o) (__fp_trunc)
/home/jin/local/avr/lib/gcc/avr/4.6.3/../../../../avr/lib/avr6/libm.a(fp_zero.o)
                              /home/jin/local/avr/lib/gcc/avr/4.6.3/../../../../avr/lib/avr6/libm.a(addsf3x.o) (__fp_zero)
/home/jin/local/avr/lib/gcc/avr/4.6.3/../../../../avr/lib/avr6/libm.a(gesf2.o)
                              build/mighty_one-2560/MightyBoard/Motherboard/StepperAccel.o (__gtsf2)
/home/jin/local/avr/lib/gcc/avr/4.6.3/../../../../avr/lib/avr6/libm.a(log.o)
                              build/mighty_one-2560/MightyBoard/shared/Thermistor.o (log)
/home/jin/local/avr/lib/gcc/avr/4.6.3/../../../../avr/lib/avr6/libm.a(mulsf3.o)
                              build/mighty_one-2560/MightyBoard/Motherboard/Command.o (__mulsf3)
/home/jin/local/avr/lib/gcc/avr/4.6.3/../../../../avr/lib/avr6/libm.a(mulsf3x.o)
                              /home/jin/local/avr/lib/gcc/avr/4.6.3/../../../../avr/lib/avr6/libm.a(log.o) (__mulsf3x)
/home/jin/local/avr/lib/gcc/avr/4.6.3/../../../../avr/lib/avr6/libm.a(sqrt.o)
                              build/mighty_one-2560/MightyBoard/Motherboard/Command.o (sqrt)
/home/jin/local/avr/lib/gcc/avr/4.6.3/../../../../avr/lib/avr6/libm.a(fp_norm2.o)
                              /home/jin/local/avr/lib/gcc/avr/4.6.3/../../../../avr/lib/avr6/libm.a(sqrt.o) (__fp_norm2)
/home/jin/local/avr/lib/gcc/avr/4.6.3/../../../../avr/lib/avr6/libm.a(fp_powser.o)
                              /home/jin/local/avr/lib/gcc/avr/4.6.3/../../../../avr/lib/avr6/libm.a(log.o) (__fp_powser)
/home/jin/local/avr/lib/gcc/avr/4.6.3/avr6/libgcc.a(_mulsi3.o)
                              build/mighty_one-2560/MightyBoard/Motherboard/Command.o (__mulsi3)
/home/jin/local/avr/lib/gcc/avr/4.6.3/avr6/libgcc.a(_udivmodqi4.o)
                              build/mighty_one-2560/MightyBoard/Motherboard/EepromMap.o (__udivmodqi4)
/home/jin/local/avr/lib/gcc/avr/4.6.3/avr6/libgcc.a(_udivmodhi4.o)
                              build/mighty_one-2560/MightyBoard/Motherboard/Command.o (__udivmodhi4)
/home/jin/local/avr/lib/gcc/avr/4.6.3/avr6/libgcc.a(_divmodhi4.o)
                              build/mighty_one-2560/MightyBoard/Motherboard/Motherboard.o (__divmodhi4)
/home/jin/local/avr/lib/gcc/avr/4.6.3/avr6/libgcc.a(_udivmodsi4.o)
                              build/mighty_one-2560/MightyBoard/Motherboard/Host.o (__udivmodsi4)
/home/jin/local/avr/lib/gcc/avr/4.6.3/avr6/libgcc.a(_divmodsi4.o)
                              build/mighty_one-2560/MightyBoard/Motherboard/StepperAccelPlanner.o (__divmodsi4)
/home/jin/local/avr/lib/gcc/avr/4.6.3/avr6/libgcc.a(_exit.o)
                              /home/jin/local/avr/lib/gcc/avr/4.6.3/../../../../avr/lib/avr6/crtm2560.o (exit)
/home/jin/local/avr/lib/gcc/avr/4.6.3/avr6/libgcc.a(_copy_data.o)
                              build/mighty_one-2560/MightyBoard/Motherboard/Command.o (__do_copy_data)
/home/jin/local/avr/lib/gcc/avr/4.6.3/avr6/libgcc.a(_clear_bss.o)
                              build/mighty_one-2560/MightyBoard/Motherboard/Command.o (__do_clear_bss)
/home/jin/local/avr/lib/gcc/avr/4.6.3/avr6/libgcc.a(_ctors.o)
                              build/mighty_one-2560/MightyBoard/Motherboard/Command.o (__do_global_ctors)
/home/jin/local/avr/lib/gcc/avr/4.6.3/avr6/libgcc.a(_muldi3.o)
                              build/mighty_one-2560/MightyBoard/Motherboard/StepperAccelPlanner.o (__muldi3)
/home/jin/local/avr/lib/gcc/avr/4.6.3/avr6/libgcc.a(_lshrdi3.o)
                              build/mighty_one-2560/MightyBoard/Motherboard/lib_sd/sd_raw.o (__lshrdi3)
/home/jin/local/avr/lib/gcc/avr/4.6.3/avr6/libgcc.a(_ashldi3.o)
                              build/mighty_one-2560/MightyBoard/Motherboard/lib_sd/fat.o (__ashldi3)
/home/jin/local/avr/lib/gcc/avr/4.6.3/avr6/libgcc.a(_ashrdi3.o)
                              build/mighty_one-2560/MightyBoard/Motherboard/StepperAccelPlanner.o (__ashrdi3)
/home/jin/local/avr/lib/gcc/avr/4.6.3/avr6/libgcc.a(_divdi3.o)
                              build/mighty_one-2560/MightyBoard/Motherboard/StepperAxis.o (__divdi3)
/home/jin/local/avr/lib/gcc/avr/4.6.3/avr6/libgcc.a(_prologue.o)
                              /home/jin/local/avr/lib/gcc/avr/4.6.3/avr6/libgcc.a(_muldi3.o) (__prologue_saves__)
/home/jin/local/avr/lib/gcc/avr/4.6.3/avr6/libgcc.a(_epilogue.o)
                              /home/jin/local/avr/lib/gcc/avr/4.6.3/avr6/libgcc.a(_muldi3.o) (__epilogue_restores__)
/home/jin/local/avr/lib/gcc/avr/4.6.3/avr6/libgcc.a(_tablejump_elpm.o)
                              /home/jin/local/avr/lib/gcc/avr/4.6.3/avr6/libgcc.a(_ctors.o) (__tablejump_elpm__)
/home/jin/local/avr/lib/gcc/avr/4.6.3/avr6/libgcc.a(_clz.o)
                              /home/jin/local/avr/lib/gcc/avr/4.6.3/avr6/libgcc.a(_divdi3.o) (__clz_tab)
/home/jin/local/avr/lib/gcc/avr/4.6.3/../../../../avr/lib/avr6/libc.a(strlcpy_P.o)
                              build/mighty_one-2560/MightyBoard/shared/Menu.o (strlcpy_P)
/home/jin/local/avr/lib/gcc/avr/4.6.3/../../../../avr/lib/avr6/libc.a(memcpy_PF.o)
                              build/mighty_one-2560/MightyBoard/shared/TemperatureTable.o (memcpy_PF)
/home/jin/local/avr/lib/gcc/avr/4.6.3/../../../../avr/lib/avr6/libc.a(memcpy.o)
                              build/mighty_one-2560/MightyBoard/Motherboard/lib_sd/fat.o (memcpy)
/home/jin/local/avr/lib/gcc/avr/4.6.3/../../../../avr/lib/avr6/libc.a(memset.o)
                              build/mighty_one-2560/MightyBoard/Motherboard/lib_sd/fat.o (memset)
/home/jin/local/avr/lib/gcc/avr/4.6.3/../../../../avr/lib/avr6/libc.a(strchr.o)
                              build/mighty_one-2560/MightyBoard/Motherboard/lib_sd/fat.o (strchr)
/home/jin/local/avr/lib/gcc/avr/4.6.3/../../../../avr/lib/avr6/libc.a(strcmp.o)
                              build/mighty_one-2560/MightyBoard/Motherboard/SDCard.o (strcmp)
/home/jin/local/avr/lib/gcc/avr/4.6.3/../../../../avr/lib/avr6/libc.a(strncmp.o)
                              build/mighty_one-2560/MightyBoard/Motherboard/lib_sd/fat.o (strncmp)
/home/jin/local/avr/lib/gcc/avr/4.6.3/../../../../avr/lib/avr6/libc.a(strncpy.o)
                              build/mighty_one-2560/MightyBoard/Motherboard/lib_sd/fat.o (strncpy)
/home/jin/local/avr/lib/gcc/avr/4.6.3/../../../../avr/lib/avr6/libc.a(strrchr.o)
                              build/mighty_one-2560/MightyBoard/Motherboard/lib_sd/fat.o (strrchr)
/home/jin/local/avr/lib/gcc/avr/4.6.3/../../../../avr/lib/avr6/libc.a(eerd_block_atmega2560.o)
                              build/mighty_one-2560/MightyBoard/Motherboard/Command.o (__eerd_block_m2560)
/home/jin/local/avr/lib/gcc/avr/4.6.3/../../../../avr/lib/avr6/libc.a(eerd_byte_atmega2560.o)
                              build/mighty_one-2560/MightyBoard/shared/Eeprom.o (__eerd_byte_m2560)
/home/jin/local/avr/lib/gcc/avr/4.6.3/../../../../avr/lib/avr6/libc.a(eerd_dword_atmega2560.o)
                              build/mighty_one-2560/MightyBoard/shared/Eeprom.o (__eerd_dword_m2560)
/home/jin/local/avr/lib/gcc/avr/4.6.3/../../../../avr/lib/avr6/libc.a(eewr_block_atmega2560.o)
                              build/mighty_one-2560/MightyBoard/Motherboard/Command.o (__eewr_block_m2560)
/home/jin/local/avr/lib/gcc/avr/4.6.3/../../../../avr/lib/avr6/libc.a(eewr_byte_atmega2560.o)
                              build/mighty_one-2560/MightyBoard/Motherboard/Command.o (__eewr_byte_m2560)
/home/jin/local/avr/lib/gcc/avr/4.6.3/../../../../avr/lib/avr6/libc.a(eewr_dword_atmega2560.o)
                              build/mighty_one-2560/MightyBoard/Motherboard/EepromMap.o (__eewr_dword_m2560)
/home/jin/local/avr/lib/gcc/avr/4.6.3/../../../../avr/lib/avr6/libc.a(eewr_word_atmega2560.o)
                              build/mighty_one-2560/MightyBoard/Motherboard/EepromMap.o (__eewr_word_m2560)

Discarded input sections

 .data          0x00000000        0x0 /home/jin/local/avr/lib/gcc/avr/4.6.3/../../../../avr/lib/avr6/crtm2560.o
 .bss           0x00000000        0x0 /home/jin/local/avr/lib/gcc/avr/4.6.3/../../../../avr/lib/avr6/crtm2560.o
 .text          0x00000000        0x0 build/mighty_one-2560/MightyBoard/Motherboard/Command.o
 .data          0x00000000        0x0 build/mighty_one-2560/MightyBoard/Motherboard/Command.o
 .bss           0x00000000        0x0 build/mighty_one-2560/MightyBoard/Motherboard/Command.o
 .text._ZN7command14getPauseAtZPosEv
                0x00000000       0x1e build/mighty_one-2560/MightyBoard/Motherboard/Command.o
 .text._ZN7command9buildDoneEv
                0x00000000        0xa build/mighty_one-2560/MightyBoard/Motherboard/Command.o
 .text._ZN7command7isReadyEv
                0x00000000        0xc build/mighty_one-2560/MightyBoard/Motherboard/Command.o
 .text._ZN7command26estimatedTimeLeftInSecondsEv
                0x00000000      0x100 build/mighty_one-2560/MightyBoard/Motherboard/Command.o
 .bss._ZN7command24outstanding_tool_commandE
                0x00000000        0x1 build/mighty_one-2560/MightyBoard/Motherboard/Command.o
 .text          0x00000000        0x0 build/mighty_one-2560/MightyBoard/Motherboard/DebugPacketProcessor.o
 .data          0x00000000        0x0 build/mighty_one-2560/MightyBoard/Motherboard/DebugPacketProcessor.o
 .bss           0x00000000        0x0 build/mighty_one-2560/MightyBoard/Motherboard/DebugPacketProcessor.o
 .debug_info    0x00000000       0x65 build/mighty_one-2560/MightyBoard/Motherboard/DebugPacketProcessor.o
 .debug_abbrev  0x00000000       0x2a build/mighty_one-2560/MightyBoard/Motherboard/DebugPacketProcessor.o
 .debug_line    0x00000000       0x1d build/mighty_one-2560/MightyBoard/Motherboard/DebugPacketProcessor.o
 .debug_str     0x00000000       0xf6 build/mighty_one-2560/MightyBoard/Motherboard/DebugPacketProcessor.o
 .text          0x00000000        0x0 build/mighty_one-2560/MightyBoard/Motherboard/EepromMap.o
 .bss           0x00000000        0x0 build/mighty_one-2560/MightyBoard/Motherboard/EepromMap.o
 .text._ZN6eeprom14setCustomColorEhhh
                0x00000000       0x4a build/mighty_one-2560/MightyBoard/Motherboard/EepromMap.o
 .text          0x00000000        0x0 build/mighty_one-2560/MightyBoard/Motherboard/Host.o
 .data          0x00000000        0x0 build/mighty_one-2560/MightyBoard/Motherboard/Host.o
 .bss           0x00000000        0x0 build/mighty_one-2560/MightyBoard/Motherboard/Host.o
 .text._ZN4host14getMachineNameEv
                0x00000000       0x66 build/mighty_one-2560/MightyBoard/Motherboard/Host.o
 .bss._ZN4host15last_print_lineE
                0x00000000        0x4 build/mighty_one-2560/MightyBoard/Motherboard/Host.o
 .bss._ZN4host10buildStepsE
                0x00000000        0x4 build/mighty_one-2560/MightyBoard/Motherboard/Host.o
 .progmem.data  0x00000000        0xd build/mighty_one-2560/MightyBoard/Motherboard/Host.o
 .text          0x00000000        0x0 build/mighty_one-2560/MightyBoard/Motherboard/Main.o
 .data          0x00000000        0x0 build/mighty_one-2560/MightyBoard/Motherboard/Main.o
 .bss           0x00000000        0x0 build/mighty_one-2560/MightyBoard/Motherboard/Main.o
 .text._Z10StackCountv
                0x00000000       0x20 build/mighty_one-2560/MightyBoard/Motherboard/Main.o
 .text          0x00000000        0x0 build/mighty_one-2560/MightyBoard/Motherboard/Motherboard.o
 .data          0x00000000        0x0 build/mighty_one-2560/MightyBoard/Motherboard/Motherboard.o
 .bss           0x00000000        0x0 build/mighty_one-2560/MightyBoard/Motherboard/Motherboard.o
 .text._ZN11Motherboard16setUsingPlatformEb
                0x00000000        0xa build/mighty_one-2560/MightyBoard/Motherboard/Motherboard.o
 .bss.m2        0x00000000        0x4 build/mighty_one-2560/MightyBoard/Motherboard/Motherboard.o
 .bss.blink_count
                0x00000000        0x1 build/mighty_one-2560/MightyBoard/Motherboard/Motherboard.o
 .rodata._ZTV6Screen
                0x00000000        0xc build/mighty_one-2560/MightyBoard/Motherboard/Motherboard.o
 .rodata._ZTV14HeatingElement
                0x00000000        0x6 build/mighty_one-2560/MightyBoard/Motherboard/Motherboard.o
 .text          0x00000000        0x0 build/mighty_one-2560/MightyBoard/Motherboard/Piezo.o
 .data          0x00000000        0x0 build/mighty_one-2560/MightyBoard/Motherboard/Piezo.o
 .bss           0x00000000        0x0 build/mighty_one-2560/MightyBoard/Motherboard/Piezo.o
 .text._ZN5Piezo11startUpToneEv
                0x00000000        0x8 build/mighty_one-2560/MightyBoard/Motherboard/Piezo.o
 .text._ZN5Piezo8doneToneEv
                0x00000000        0x8 build/mighty_one-2560/MightyBoard/Motherboard/Piezo.o
 .text          0x00000000        0x0 build/mighty_one-2560/MightyBoard/Motherboard/Point.o
 .data          0x00000000        0x0 build/mighty_one-2560/MightyBoard/Motherboard/Point.o
 .bss           0x00000000        0x0 build/mighty_one-2560/MightyBoard/Motherboard/Point.o
 .text._ZN5PointC2Elll
                0x00000000       0x44 build/mighty_one-2560/MightyBoard/Motherboard/Point.o
 .text._ZmiRK5PointS1_
                0x00000000      0x118 build/mighty_one-2560/MightyBoard/Motherboard/Point.o
 .text._ZplRK5PointS1_
                0x00000000      0x118 build/mighty_one-2560/MightyBoard/Motherboard/Point.o
 .text._ZN5Point3absEv
                0x00000000      0x118 build/mighty_one-2560/MightyBoard/Motherboard/Point.o
 .text          0x00000000        0x0 build/mighty_one-2560/MightyBoard/Motherboard/SDCard.o
 .bss           0x00000000        0x0 build/mighty_one-2560/MightyBoard/Motherboard/SDCard.o
 .text._ZN6sdcard11forceReinitEv
                0x00000000        0x8 build/mighty_one-2560/MightyBoard/Motherboard/SDCard.o
 .text._ZN6sdcard11isCapturingEv
                0x00000000        0x6 build/mighty_one-2560/MightyBoard/Motherboard/SDCard.o
 .text._ZN6sdcard9writeByteEh
                0x00000000       0x36 build/mighty_one-2560/MightyBoard/Motherboard/SDCard.o
 .text._ZN6sdcard12startCaptureEPc
                0x00000000       0xae build/mighty_one-2560/MightyBoard/Motherboard/SDCard.o
 .text._ZN6sdcard10fileExistsEPKc
                0x00000000       0x48 build/mighty_one-2560/MightyBoard/Motherboard/SDCard.o
 .text          0x00000000        0x0 build/mighty_one-2560/MightyBoard/Motherboard/SkewTilt.o
 .data          0x00000000        0x0 build/mighty_one-2560/MightyBoard/Motherboard/SkewTilt.o
 .bss           0x00000000        0x0 build/mighty_one-2560/MightyBoard/Motherboard/SkewTilt.o
 .text          0x00000000        0x0 build/mighty_one-2560/MightyBoard/Motherboard/SoftI2cManager.o
 .data          0x00000000        0x0 build/mighty_one-2560/MightyBoard/Motherboard/SoftI2cManager.o
 .bss           0x00000000        0x0 build/mighty_one-2560/MightyBoard/Motherboard/SoftI2cManager.o
 .text._ZN14SoftI2cManager7restartEhRK3Pin
                0x00000000       0x2e build/mighty_one-2560/MightyBoard/Motherboard/SoftI2cManager.o
 .text          0x00000000        0x0 build/mighty_one-2560/MightyBoard/Motherboard/StepperAccel.o
 .data          0x00000000        0x0 build/mighty_one-2560/MightyBoard/Motherboard/StepperAccel.o
 .bss           0x00000000        0x0 build/mighty_one-2560/MightyBoard/Motherboard/StepperAccel.o
 .text._Z17st_set_e_positionRKlS0_
                0x00000000       0x3c build/mighty_one-2560/MightyBoard/Motherboard/StepperAccel.o
 .bss.debugTimer
                0x00000000        0x2 build/mighty_one-2560/MightyBoard/Motherboard/StepperAccel.o
 .text          0x00000000        0x0 build/mighty_one-2560/MightyBoard/Motherboard/StepperAccelPlanner.o
 .data          0x00000000        0x0 build/mighty_one-2560/MightyBoard/Motherboard/StepperAccelPlanner.o
 .bss           0x00000000        0x0 build/mighty_one-2560/MightyBoard/Motherboard/StepperAccelPlanner.o
 .text._Z19plan_set_e_positionRKlS0_
                0x00000000       0x5a build/mighty_one-2560/MightyBoard/Motherboard/StepperAccelPlanner.o
 .text          0x00000000        0x0 build/mighty_one-2560/MightyBoard/Motherboard/StepperAxis.o
 .data          0x00000000        0x0 build/mighty_one-2560/MightyBoard/Motherboard/StepperAxis.o
 .bss           0x00000000        0x0 build/mighty_one-2560/MightyBoard/Motherboard/StepperAxis.o
 .text          0x00000000        0x0 build/mighty_one-2560/MightyBoard/Motherboard/Steppers.o
 .data          0x00000000        0x0 build/mighty_one-2560/MightyBoard/Motherboard/Steppers.o
 .bss           0x00000000        0x0 build/mighty_one-2560/MightyBoard/Motherboard/Steppers.o
 .text          0x00000000        0x0 build/mighty_one-2560/MightyBoard/Motherboard/TWI.o
 .data          0x00000000        0x0 build/mighty_one-2560/MightyBoard/Motherboard/TWI.o
 .bss           0x00000000        0x0 build/mighty_one-2560/MightyBoard/Motherboard/TWI.o
 .text._Z14TWI_write_bytehh
                0x00000000       0x66 build/mighty_one-2560/MightyBoard/Motherboard/TWI.o
 .text._Z13TWI_read_bytehPhh
                0x00000000       0x8a build/mighty_one-2560/MightyBoard/Motherboard/TWI.o
 .text          0x00000000        0x0 build/mighty_one-2560/MightyBoard/Motherboard/UtilityScripts.o
 .data          0x00000000        0x0 build/mighty_one-2560/MightyBoard/Motherboard/UtilityScripts.o
 .bss           0x00000000        0x0 build/mighty_one-2560/MightyBoard/Motherboard/UtilityScripts.o
 .text          0x00000000        0x0 build/mighty_one-2560/MightyBoard/Motherboard/boards/mighty_one/ButtonArray.o
 .data          0x00000000        0x0 build/mighty_one-2560/MightyBoard/Motherboard/boards/mighty_one/ButtonArray.o
 .bss           0x00000000        0x0 build/mighty_one-2560/MightyBoard/Motherboard/boards/mighty_one/ButtonArray.o
 .text._ZN11ButtonArray4scanEv
                0x00000000       0xb6 build/mighty_one-2560/MightyBoard/Motherboard/boards/mighty_one/ButtonArray.o
 .text          0x00000000        0x0 build/mighty_one-2560/MightyBoard/Motherboard/boards/mighty_one/Cutoff.o
 .data          0x00000000        0x0 build/mighty_one-2560/MightyBoard/Motherboard/boards/mighty_one/Cutoff.o
 .bss           0x00000000        0x0 build/mighty_one-2560/MightyBoard/Motherboard/boards/mighty_one/Cutoff.o
 .text._ZN6Cutoff14isCutoffActiveEv
                0x00000000       0x5a build/mighty_one-2560/MightyBoard/Motherboard/boards/mighty_one/Cutoff.o
 .text._ZN6Cutoff6enableEv
                0x00000000       0x9e build/mighty_one-2560/MightyBoard/Motherboard/boards/mighty_one/Cutoff.o
 .text._ZN6Cutoff8setAlarmEv
                0x00000000       0x1c build/mighty_one-2560/MightyBoard/Motherboard/boards/mighty_one/Cutoff.o
 .text._ZN6Cutoff13noiseResponseEv
                0x00000000       0x7c build/mighty_one-2560/MightyBoard/Motherboard/boards/mighty_one/Cutoff.o
 .text          0x00000000        0x0 build/mighty_one-2560/MightyBoard/Motherboard/boards/mighty_one/ExtruderBoard.o
 .data          0x00000000        0x0 build/mighty_one-2560/MightyBoard/Motherboard/boards/mighty_one/ExtruderBoard.o
 .bss           0x00000000        0x0 build/mighty_one-2560/MightyBoard/Motherboard/boards/mighty_one/ExtruderBoard.o
 .text._ZN22ExtruderHeatingElementC2Eh
                0x00000000        0xe build/mighty_one-2560/MightyBoard/Motherboard/boards/mighty_one/ExtruderBoard.o
 .rodata._ZTV14HeatingElement
                0x00000000        0x6 build/mighty_one-2560/MightyBoard/Motherboard/boards/mighty_one/ExtruderBoard.o
 .text          0x00000000        0x0 build/mighty_one-2560/MightyBoard/Motherboard/boards/mighty_one/RGB_LED.o
 .data          0x00000000        0x0 build/mighty_one-2560/MightyBoard/Motherboard/boards/mighty_one/RGB_LED.o
 .bss           0x00000000        0x0 build/mighty_one-2560/MightyBoard/Motherboard/boards/mighty_one/RGB_LED.o
 .text._ZN7RGB_LED15startupSequenceEv
                0x00000000        0x2 build/mighty_one-2560/MightyBoard/Motherboard/boards/mighty_one/RGB_LED.o
 .text._ZN7RGB_LED14setCustomColorEhhh
                0x00000000       0x2a build/mighty_one-2560/MightyBoard/Motherboard/boards/mighty_one/RGB_LED.o
 .text._ZN7RGB_LED11setLEDBlinkEh
                0x00000000        0xa build/mighty_one-2560/MightyBoard/Motherboard/boards/mighty_one/RGB_LED.o
 .text          0x00000000        0x0 build/mighty_one-2560/MightyBoard/Motherboard/lib_sd/byteordering.o
 .data          0x00000000        0x0 build/mighty_one-2560/MightyBoard/Motherboard/lib_sd/byteordering.o
 .bss           0x00000000        0x0 build/mighty_one-2560/MightyBoard/Motherboard/lib_sd/byteordering.o
 .debug_info    0x00000000       0x5e build/mighty_one-2560/MightyBoard/Motherboard/lib_sd/byteordering.o
 .debug_abbrev  0x00000000       0x2a build/mighty_one-2560/MightyBoard/Motherboard/lib_sd/byteordering.o
 .debug_line    0x00000000       0x1d build/mighty_one-2560/MightyBoard/Motherboard/lib_sd/byteordering.o
 .debug_str     0x00000000       0xef build/mighty_one-2560/MightyBoard/Motherboard/lib_sd/byteordering.o
 .text          0x00000000        0x0 build/mighty_one-2560/MightyBoard/Motherboard/lib_sd/fat.o
 .bss           0x00000000        0x0 build/mighty_one-2560/MightyBoard/Motherboard/lib_sd/fat.o
 .text._ZL17fat_free_clustersP13fat_fs_structm
                0x00000000      0x3e4 build/mighty_one-2560/MightyBoard/Motherboard/lib_sd/fat.o
 .text._ZL19fat_append_clustersP13fat_fs_structmm
                0x00000000      0x6ac build/mighty_one-2560/MightyBoard/Motherboard/lib_sd/fat.o
 .text._ZL26fat_clear_cluster_callbackPhyPv
                0x00000000        0x6 build/mighty_one-2560/MightyBoard/Motherboard/lib_sd/fat.o
 .text._ZL27fat_get_fs_free_16_callbackPhyPv
                0x00000000       0x4c build/mighty_one-2560/MightyBoard/Motherboard/lib_sd/fat.o
 .text._ZL27fat_get_fs_free_32_callbackPhyPv
                0x00000000       0x54 build/mighty_one-2560/MightyBoard/Motherboard/lib_sd/fat.o
 .text._ZL17fat_clear_clusterPK13fat_fs_structm.part.0
                0x00000000       0x8a build/mighty_one-2560/MightyBoard/Motherboard/lib_sd/fat.o
 .text._ZL29fat_find_offset_for_dir_entryP13fat_fs_structPK14fat_dir_structPK20fat_dir_entry_struct.isra.1
                0x00000000      0x516 build/mighty_one-2560/MightyBoard/Motherboard/lib_sd/fat.o
 .text.fat_write_file
                0x00000000      0x63a build/mighty_one-2560/MightyBoard/Motherboard/lib_sd/fat.o
 .text.fat_resize_file
                0x00000000      0x4d4 build/mighty_one-2560/MightyBoard/Motherboard/lib_sd/fat.o
 .text.fat_seek_file
                0x00000000      0x100 build/mighty_one-2560/MightyBoard/Motherboard/lib_sd/fat.o
 .text.fat_create_file
                0x00000000       0xd4 build/mighty_one-2560/MightyBoard/Motherboard/lib_sd/fat.o
 .text.fat_delete_file
                0x00000000      0x1a4 build/mighty_one-2560/MightyBoard/Motherboard/lib_sd/fat.o
 .text.fat_create_dir
                0x00000000      0x3dc build/mighty_one-2560/MightyBoard/Motherboard/lib_sd/fat.o
 .text.fat_get_file_size
                0x00000000       0x20 build/mighty_one-2560/MightyBoard/Motherboard/lib_sd/fat.o
 .text.fat_get_fs_size
                0x00000000       0xc0 build/mighty_one-2560/MightyBoard/Motherboard/lib_sd/fat.o
 .text.fat_get_fs_free
                0x00000000      0x270 build/mighty_one-2560/MightyBoard/Motherboard/lib_sd/fat.o
 .text          0x00000000        0x0 build/mighty_one-2560/MightyBoard/Motherboard/lib_sd/partition.o
 .data          0x00000000        0x0 build/mighty_one-2560/MightyBoard/Motherboard/lib_sd/partition.o
 .bss           0x00000000        0x0 build/mighty_one-2560/MightyBoard/Motherboard/lib_sd/partition.o
 .text          0x00000000        0x0 build/mighty_one-2560/MightyBoard/Motherboard/lib_sd/sd_crc.o
 .data          0x00000000        0x0 build/mighty_one-2560/MightyBoard/Motherboard/lib_sd/sd_crc.o
 .bss           0x00000000        0x0 build/mighty_one-2560/MightyBoard/Motherboard/lib_sd/sd_crc.o
 .text          0x00000000        0x0 build/mighty_one-2560/MightyBoard/Motherboard/lib_sd/sd_raw.o
 .data          0x00000000        0x0 build/mighty_one-2560/MightyBoard/Motherboard/lib_sd/sd_raw.o
 .bss           0x00000000        0x0 build/mighty_one-2560/MightyBoard/Motherboard/lib_sd/sd_raw.o
 .text.sd_raw_get_info
                0x00000000      0x314 build/mighty_one-2560/MightyBoard/Motherboard/lib_sd/sd_raw.o
 .text          0x00000000        0x0 build/mighty_one-2560/MightyBoard/shared/AnalogPin.o
 .data          0x00000000        0x0 build/mighty_one-2560/MightyBoard/shared/AnalogPin.o
 .bss           0x00000000        0x0 build/mighty_one-2560/MightyBoard/shared/AnalogPin.o
 .text          0x00000000        0x0 build/mighty_one-2560/MightyBoard/shared/AvrPort.o
 .data          0x00000000        0x0 build/mighty_one-2560/MightyBoard/shared/AvrPort.o
 .bss           0x00000000        0x0 build/mighty_one-2560/MightyBoard/shared/AvrPort.o
 .text._ZN7AvrPortC2Ev
                0x00000000        0xc build/mighty_one-2560/MightyBoard/shared/AvrPort.o
 .text._ZN7AvrPortC2Ej
                0x00000000        0x8 build/mighty_one-2560/MightyBoard/shared/AvrPort.o
 .text._ZNK7AvrPort6isNullEv
                0x00000000       0x14 build/mighty_one-2560/MightyBoard/shared/AvrPort.o
 .text._ZNK7AvrPort18setPinDirectionOutEh
                0x00000000       0x16 build/mighty_one-2560/MightyBoard/shared/AvrPort.o
 .text._ZNK7AvrPort17setPinDirectionInEh
                0x00000000       0x16 build/mighty_one-2560/MightyBoard/shared/AvrPort.o
 .text._ZNK7AvrPort6getPinEh
                0x00000000       0x14 build/mighty_one-2560/MightyBoard/shared/AvrPort.o
 .text._ZNK7AvrPort8setPinOnEh
                0x00000000       0x16 build/mighty_one-2560/MightyBoard/shared/AvrPort.o
 .text._ZNK7AvrPort9setPinOffEh
                0x00000000       0x16 build/mighty_one-2560/MightyBoard/shared/AvrPort.o
 .text          0x00000000        0x0 build/mighty_one-2560/MightyBoard/shared/CoolingFan.o
 .data          0x00000000        0x0 build/mighty_one-2560/MightyBoard/shared/CoolingFan.o
 .bss           0x00000000        0x0 build/mighty_one-2560/MightyBoard/shared/CoolingFan.o
 .text          0x00000000        0x0 build/mighty_one-2560/MightyBoard/shared/DigiPots.o
 .data          0x00000000        0x0 build/mighty_one-2560/MightyBoard/shared/DigiPots.o
 .bss           0x00000000        0x0 build/mighty_one-2560/MightyBoard/shared/DigiPots.o
 .text._ZN8DigiPots4initEh
                0x00000000        0xc build/mighty_one-2560/MightyBoard/shared/DigiPots.o
 .text          0x00000000        0x0 build/mighty_one-2560/MightyBoard/shared/Eeprom.o
 .data          0x00000000        0x0 build/mighty_one-2560/MightyBoard/shared/Eeprom.o
 .bss           0x00000000        0x0 build/mighty_one-2560/MightyBoard/shared/Eeprom.o
 .text._ZN6eeprom5eraseEv
                0x00000000       0x22 build/mighty_one-2560/MightyBoard/shared/Eeprom.o
 .text._ZN6eeprom12saveToSDFileEPKc
                0x00000000       0x40 build/mighty_one-2560/MightyBoard/shared/Eeprom.o
 .text._ZN6eeprom17restoreFromSDFileEPKc
                0x00000000       0x40 build/mighty_one-2560/MightyBoard/shared/Eeprom.o
 .text          0x00000000        0x0 build/mighty_one-2560/MightyBoard/shared/Heater.o
 .data          0x00000000        0x0 build/mighty_one-2560/MightyBoard/shared/Heater.o
 .bss           0x00000000        0x0 build/mighty_one-2560/MightyBoard/shared/Heater.o
 .text          0x00000000        0x0 build/mighty_one-2560/MightyBoard/shared/Interface.o
 .data          0x00000000        0x0 build/mighty_one-2560/MightyBoard/shared/Interface.o
 .bss           0x00000000        0x0 build/mighty_one-2560/MightyBoard/shared/Interface.o
 .text._ZN9interface12pushNoUpdateEP6Screen
                0x00000000       0x10 build/mighty_one-2560/MightyBoard/shared/Interface.o
 .text._ZN9interface11doInterruptEv
                0x00000000        0xe build/mighty_one-2560/MightyBoard/shared/Interface.o
 .text._ZN9interface13getUpdateRateEv
                0x00000000        0xe build/mighty_one-2560/MightyBoard/shared/Interface.o
 .text._ZN9interface8doUpdateEv
                0x00000000        0xe build/mighty_one-2560/MightyBoard/shared/Interface.o
 .text._ZN9interface7setLEDsEb
                0x00000000       0x28 build/mighty_one-2560/MightyBoard/shared/Interface.o
 .text          0x00000000        0x0 build/mighty_one-2560/MightyBoard/shared/InterfaceBoard.o
 .data          0x00000000        0x0 build/mighty_one-2560/MightyBoard/shared/InterfaceBoard.o
 .bss           0x00000000        0x0 build/mighty_one-2560/MightyBoard/shared/InterfaceBoard.o
 .text._ZN14InterfaceBoard8resetLCDEv
                0x00000000        0xc build/mighty_one-2560/MightyBoard/shared/InterfaceBoard.o
 .text._ZN14InterfaceBoard12pushNoUpdateEP6Screen
                0x00000000       0x46 build/mighty_one-2560/MightyBoard/shared/InterfaceBoard.o
 .text._ZN14InterfaceBoard20getButtonRepetitionsEv
                0x00000000        0x8 build/mighty_one-2560/MightyBoard/shared/InterfaceBoard.o
 .text          0x00000000        0x0 build/mighty_one-2560/MightyBoard/shared/LiquidCrystalSerial.o
 .data          0x00000000        0x0 build/mighty_one-2560/MightyBoard/shared/LiquidCrystalSerial.o
 .bss           0x00000000        0x0 build/mighty_one-2560/MightyBoard/shared/LiquidCrystalSerial.o
 .text._ZN19LiquidCrystalSerial12setGrayscaleEh
                0x00000000       0x24 build/mighty_one-2560/MightyBoard/shared/LiquidCrystalSerial.o
 .text._ZN19LiquidCrystalSerial10homeCursorEv
                0x00000000        0xa build/mighty_one-2560/MightyBoard/shared/LiquidCrystalSerial.o
 .text._ZN19LiquidCrystalSerial10writeInt32Emh
                0x00000000      0x164 build/mighty_one-2560/MightyBoard/shared/LiquidCrystalSerial.o
 .text._ZN19LiquidCrystalSerial8disp_picEPKh
                0x00000000       0x88 build/mighty_one-2560/MightyBoard/shared/LiquidCrystalSerial.o
 .text._ZN19LiquidCrystalSerial12disp_128x128EPKh
                0x00000000       0x88 build/mighty_one-2560/MightyBoard/shared/LiquidCrystalSerial.o
 .text._ZN19LiquidCrystalSerial23moveWriteFromPgmspace_REhhPKh
                0x00000000       0x2c build/mighty_one-2560/MightyBoard/shared/LiquidCrystalSerial.o
 .text._ZN19LiquidCrystalSerial25moveWriteFromPgmspaceCH_REhhPKh
                0x00000000       0x2c build/mighty_one-2560/MightyBoard/shared/LiquidCrystalSerial.o
 .text._ZN19LiquidCrystalSerial16LCD_MONO_DATA_BGEh
                0x00000000       0x44 build/mighty_one-2560/MightyBoard/shared/LiquidCrystalSerial.o
 .text._ZN19LiquidCrystalSerial12disp_icon_bgEhhhhPKh
                0x00000000       0xa8 build/mighty_one-2560/MightyBoard/shared/LiquidCrystalSerial.o
 .text          0x00000000        0x0 build/mighty_one-2560/MightyBoard/shared/Menu.o
 .data          0x00000000        0x0 build/mighty_one-2560/MightyBoard/shared/Menu.o
 .bss           0x00000000        0x0 build/mighty_one-2560/MightyBoard/shared/Menu.o
 .text._ZN4Menu10resetStateEv
                0x00000000        0x2 build/mighty_one-2560/MightyBoard/shared/Menu.o
 .text._ZN4Menu12handleSelectEh
                0x00000000        0x2 build/mighty_one-2560/MightyBoard/shared/Menu.o
 .rodata._ZTV4Menu
                0x00000000       0x12 build/mighty_one-2560/MightyBoard/shared/Menu.o
 .bss.ready_fail
                0x00000000        0x1 build/mighty_one-2560/MightyBoard/shared/Menu.o
 .rodata._ZTV6Screen
                0x00000000        0xc build/mighty_one-2560/MightyBoard/shared/Menu.o
 .text          0x00000000        0x0 build/mighty_one-2560/MightyBoard/shared/PID.o
 .data          0x00000000        0x0 build/mighty_one-2560/MightyBoard/shared/PID.o
 .bss           0x00000000        0x0 build/mighty_one-2560/MightyBoard/shared/PID.o
 .text          0x00000000        0x0 build/mighty_one-2560/MightyBoard/shared/PSU.o
 .data          0x00000000        0x0 build/mighty_one-2560/MightyBoard/shared/PSU.o
 .bss           0x00000000        0x0 build/mighty_one-2560/MightyBoard/shared/PSU.o
 .text._ZN3PSUC2ERK3Pin
                0x00000000        0x6 build/mighty_one-2560/MightyBoard/shared/PSU.o
 .text._ZN3PSU6turnOnEb
                0x00000000        0xa build/mighty_one-2560/MightyBoard/shared/PSU.o
 .text._ZN3PSU4initEv
                0x00000000       0x1a build/mighty_one-2560/MightyBoard/shared/PSU.o
 .text          0x00000000        0x0 build/mighty_one-2560/MightyBoard/shared/Packet.o
 .data          0x00000000        0x0 build/mighty_one-2560/MightyBoard/shared/Packet.o
 .bss           0x00000000        0x0 build/mighty_one-2560/MightyBoard/shared/Packet.o
 .text._ZNK6Packet6read32Eh
                0x00000000       0x30 build/mighty_one-2560/MightyBoard/shared/Packet.o
 .text._ZN9OutPacket16prepareForResendEv
                0x00000000        0xa build/mighty_one-2560/MightyBoard/shared/Packet.o
 .text          0x00000000        0x0 build/mighty_one-2560/MightyBoard/shared/Pin.o
 .data          0x00000000        0x0 build/mighty_one-2560/MightyBoard/shared/Pin.o
 .bss           0x00000000        0x0 build/mighty_one-2560/MightyBoard/shared/Pin.o
 .text._ZNK3Pin6isNullEv
                0x00000000        0x6 build/mighty_one-2560/MightyBoard/shared/Pin.o
 .text          0x00000000        0x0 build/mighty_one-2560/MightyBoard/shared/TemperatureTable.o
 .data          0x00000000        0x0 build/mighty_one-2560/MightyBoard/shared/TemperatureTable.o
 .bss           0x00000000        0x0 build/mighty_one-2560/MightyBoard/shared/TemperatureTable.o
 .text._ZN16TemperatureTable8getEntryEP5Entryaa
                0x00000000       0x3a build/mighty_one-2560/MightyBoard/shared/TemperatureTable.o
 .text._ZN16TemperatureTable17TempReadtoCelsiusEiaf
                0x00000000      0x1a0 build/mighty_one-2560/MightyBoard/shared/TemperatureTable.o
 .data._ZN16TemperatureTable9num_tempsE
                0x00000000        0x3 build/mighty_one-2560/MightyBoard/shared/TemperatureTable.o
 .progmem.data  0x00000000       0xb4 build/mighty_one-2560/MightyBoard/shared/TemperatureTable.o
 .debug_info    0x00000000      0xcec build/mighty_one-2560/MightyBoard/shared/TemperatureTable.o
 .debug_abbrev  0x00000000      0x23b build/mighty_one-2560/MightyBoard/shared/TemperatureTable.o
 .debug_loc     0x00000000      0x273 build/mighty_one-2560/MightyBoard/shared/TemperatureTable.o
 .debug_aranges
                0x00000000       0x28 build/mighty_one-2560/MightyBoard/shared/TemperatureTable.o
 .debug_ranges  0x00000000       0x18 build/mighty_one-2560/MightyBoard/shared/TemperatureTable.o
 .debug_line    0x00000000      0x160 build/mighty_one-2560/MightyBoard/shared/TemperatureTable.o
 .debug_str     0x00000000      0xb48 build/mighty_one-2560/MightyBoard/shared/TemperatureTable.o
 .debug_frame   0x00000000       0x88 build/mighty_one-2560/MightyBoard/shared/TemperatureTable.o
 .text          0x00000000        0x0 build/mighty_one-2560/MightyBoard/shared/Thermistor.o
 .data          0x00000000        0x0 build/mighty_one-2560/MightyBoard/shared/Thermistor.o
 .bss           0x00000000        0x0 build/mighty_one-2560/MightyBoard/shared/Thermistor.o
 .text._ZN17TemperatureSensor4initEv
                0x00000000        0x2 build/mighty_one-2560/MightyBoard/shared/Thermistor.o
 .rodata._ZTV17TemperatureSensor
                0x00000000        0x8 build/mighty_one-2560/MightyBoard/shared/Thermistor.o
 .text          0x00000000        0x0 build/mighty_one-2560/MightyBoard/shared/Thermocouple.o
 .data          0x00000000        0x0 build/mighty_one-2560/MightyBoard/shared/Thermocouple.o
 .bss           0x00000000        0x0 build/mighty_one-2560/MightyBoard/shared/Thermocouple.o
 .text._ZN17TemperatureSensor4initEv
                0x00000000        0x2 build/mighty_one-2560/MightyBoard/shared/Thermocouple.o
 .text._ZN12Thermocouple4initEv
                0x00000000       0x4e build/mighty_one-2560/MightyBoard/shared/Thermocouple.o
 .text._Z3nopv  0x00000000        0xc build/mighty_one-2560/MightyBoard/shared/Thermocouple.o
 .text._ZN12Thermocouple6updateEv
                0x00000000      0x104 build/mighty_one-2560/MightyBoard/shared/Thermocouple.o
 .text._ZN12ThermocoupleC2ERK3PinS2_S2_
                0x00000000       0x44 build/mighty_one-2560/MightyBoard/shared/Thermocouple.o
 .rodata._ZTV12Thermocouple
                0x00000000        0x8 build/mighty_one-2560/MightyBoard/shared/Thermocouple.o
 .rodata._ZTV17TemperatureSensor
                0x00000000        0x8 build/mighty_one-2560/MightyBoard/shared/Thermocouple.o
 .text          0x00000000        0x0 build/mighty_one-2560/MightyBoard/shared/Timeout.o
 .data          0x00000000        0x0 build/mighty_one-2560/MightyBoard/shared/Timeout.o
 .bss           0x00000000        0x0 build/mighty_one-2560/MightyBoard/shared/Timeout.o
 .text          0x00000000        0x0 build/mighty_one-2560/MightyBoard/shared/UART.o
 .data          0x00000000        0x0 build/mighty_one-2560/MightyBoard/shared/UART.o
 .bss           0x00000000        0x0 build/mighty_one-2560/MightyBoard/shared/UART.o
 .text._ZN4UART5resetEv
                0x00000000       0x18 build/mighty_one-2560/MightyBoard/shared/UART.o
 .text          0x00000000        0x0 build/mighty_one-2560/MightyBoard/Motherboard/avrfix/avrfix.o
 .data          0x00000000       0x60 build/mighty_one-2560/MightyBoard/Motherboard/avrfix/avrfix.o
 .bss           0x00000000        0x0 build/mighty_one-2560/MightyBoard/Motherboard/avrfix/avrfix.o
 .text.roundkD  0x00000000       0xd0 build/mighty_one-2560/MightyBoard/Motherboard/avrfix/avrfix.o
 .text._Z8cordichkPlS_S_hh
                0x00000000      0x198 build/mighty_one-2560/MightyBoard/Motherboard/avrfix/avrfix.o
 .text.sqrtk_uncorrected
                0x00000000      0x13a build/mighty_one-2560/MightyBoard/Motherboard/avrfix/avrfix.o
 .text          0x00000000        0x0 /home/jin/local/avr/lib/gcc/avr/4.6.3/../../../../avr/lib/avr6/libm.a(addsf3.o)
 .data          0x00000000        0x0 /home/jin/local/avr/lib/gcc/avr/4.6.3/../../../../avr/lib/avr6/libm.a(addsf3.o)
 .bss           0x00000000        0x0 /home/jin/local/avr/lib/gcc/avr/4.6.3/../../../../avr/lib/avr6/libm.a(addsf3.o)
 .text          0x00000000        0x0 /home/jin/local/avr/lib/gcc/avr/4.6.3/../../../../avr/lib/avr6/libm.a(addsf3x.o)
 .data          0x00000000        0x0 /home/jin/local/avr/lib/gcc/avr/4.6.3/../../../../avr/lib/avr6/libm.a(addsf3x.o)
 .bss           0x00000000        0x0 /home/jin/local/avr/lib/gcc/avr/4.6.3/../../../../avr/lib/avr6/libm.a(addsf3x.o)
 .text          0x00000000        0x0 /home/jin/local/avr/lib/gcc/avr/4.6.3/../../../../avr/lib/avr6/libm.a(ceil.o)
 .data          0x00000000        0x0 /home/jin/local/avr/lib/gcc/avr/4.6.3/../../../../avr/lib/avr6/libm.a(ceil.o)
 .bss           0x00000000        0x0 /home/jin/local/avr/lib/gcc/avr/4.6.3/../../../../avr/lib/avr6/libm.a(ceil.o)
 .text          0x00000000        0x0 /home/jin/local/avr/lib/gcc/avr/4.6.3/../../../../avr/lib/avr6/libm.a(cmpsf2.o)
 .data          0x00000000        0x0 /home/jin/local/avr/lib/gcc/avr/4.6.3/../../../../avr/lib/avr6/libm.a(cmpsf2.o)
 .bss           0x00000000        0x0 /home/jin/local/avr/lib/gcc/avr/4.6.3/../../../../avr/lib/avr6/libm.a(cmpsf2.o)
 .text          0x00000000        0x0 /home/jin/local/avr/lib/gcc/avr/4.6.3/../../../../avr/lib/avr6/libm.a(divsf3.o)
 .data          0x00000000        0x0 /home/jin/local/avr/lib/gcc/avr/4.6.3/../../../../avr/lib/avr6/libm.a(divsf3.o)
 .bss           0x00000000        0x0 /home/jin/local/avr/lib/gcc/avr/4.6.3/../../../../avr/lib/avr6/libm.a(divsf3.o)
 .text          0x00000000        0x0 /home/jin/local/avr/lib/gcc/avr/4.6.3/../../../../avr/lib/avr6/libm.a(divsf3x.o)
 .data          0x00000000        0x0 /home/jin/local/avr/lib/gcc/avr/4.6.3/../../../../avr/lib/avr6/libm.a(divsf3x.o)
 .bss           0x00000000        0x0 /home/jin/local/avr/lib/gcc/avr/4.6.3/../../../../avr/lib/avr6/libm.a(divsf3x.o)
 .text          0x00000000        0x0 /home/jin/local/avr/lib/gcc/avr/4.6.3/../../../../avr/lib/avr6/libm.a(fixsfdi.o)
 .data          0x00000000        0x0 /home/jin/local/avr/lib/gcc/avr/4.6.3/../../../../avr/lib/avr6/libm.a(fixsfdi.o)
 .bss           0x00000000        0x0 /home/jin/local/avr/lib/gcc/avr/4.6.3/../../../../avr/lib/avr6/libm.a(fixsfdi.o)
 .text          0x00000000        0x0 /home/jin/local/avr/lib/gcc/avr/4.6.3/../../../../avr/lib/avr6/libm.a(fixsfsi.o)
 .data          0x00000000        0x0 /home/jin/local/avr/lib/gcc/avr/4.6.3/../../../../avr/lib/avr6/libm.a(fixsfsi.o)
 .bss           0x00000000        0x0 /home/jin/local/avr/lib/gcc/avr/4.6.3/../../../../avr/lib/avr6/libm.a(fixsfsi.o)
 .text          0x00000000        0x0 /home/jin/local/avr/lib/gcc/avr/4.6.3/../../../../avr/lib/avr6/libm.a(fixunssfsi.o)
 .data          0x00000000        0x0 /home/jin/local/avr/lib/gcc/avr/4.6.3/../../../../avr/lib/avr6/libm.a(fixunssfsi.o)
 .bss           0x00000000        0x0 /home/jin/local/avr/lib/gcc/avr/4.6.3/../../../../avr/lib/avr6/libm.a(fixunssfsi.o)
 .text          0x00000000        0x0 /home/jin/local/avr/lib/gcc/avr/4.6.3/../../../../avr/lib/avr6/libm.a(floatsisf.o)
 .data          0x00000000        0x0 /home/jin/local/avr/lib/gcc/avr/4.6.3/../../../../avr/lib/avr6/libm.a(floatsisf.o)
 .bss           0x00000000        0x0 /home/jin/local/avr/lib/gcc/avr/4.6.3/../../../../avr/lib/avr6/libm.a(floatsisf.o)
 .text          0x00000000        0x0 /home/jin/local/avr/lib/gcc/avr/4.6.3/../../../../avr/lib/avr6/libm.a(fp_cmp.o)
 .data          0x00000000        0x0 /home/jin/local/avr/lib/gcc/avr/4.6.3/../../../../avr/lib/avr6/libm.a(fp_cmp.o)
 .bss           0x00000000        0x0 /home/jin/local/avr/lib/gcc/avr/4.6.3/../../../../avr/lib/avr6/libm.a(fp_cmp.o)
 .text          0x00000000        0x0 /home/jin/local/avr/lib/gcc/avr/4.6.3/../../../../avr/lib/avr6/libm.a(fp_inf.o)
 .data          0x00000000        0x0 /home/jin/local/avr/lib/gcc/avr/4.6.3/../../../../avr/lib/avr6/libm.a(fp_inf.o)
 .bss           0x00000000        0x0 /home/jin/local/avr/lib/gcc/avr/4.6.3/../../../../avr/lib/avr6/libm.a(fp_inf.o)
 .text          0x00000000        0x0 /home/jin/local/avr/lib/gcc/avr/4.6.3/../../../../avr/lib/avr6/libm.a(fp_mintl.o)
 .data          0x00000000        0x0 /home/jin/local/avr/lib/gcc/avr/4.6.3/../../../../avr/lib/avr6/libm.a(fp_mintl.o)
 .bss           0x00000000        0x0 /home/jin/local/avr/lib/gcc/avr/4.6.3/../../../../avr/lib/avr6/libm.a(fp_mintl.o)
 .text          0x00000000        0x0 /home/jin/local/avr/lib/gcc/avr/4.6.3/../../../../avr/lib/avr6/libm.a(fp_mpack.o)
 .data          0x00000000        0x0 /home/jin/local/avr/lib/gcc/avr/4.6.3/../../../../avr/lib/avr6/libm.a(fp_mpack.o)
 .bss           0x00000000        0x0 /home/jin/local/avr/lib/gcc/avr/4.6.3/../../../../avr/lib/avr6/libm.a(fp_mpack.o)
 .text          0x00000000        0x0 /home/jin/local/avr/lib/gcc/avr/4.6.3/../../../../avr/lib/avr6/libm.a(fp_nan.o)
 .data          0x00000000        0x0 /home/jin/local/avr/lib/gcc/avr/4.6.3/../../../../avr/lib/avr6/libm.a(fp_nan.o)
 .bss           0x00000000        0x0 /home/jin/local/avr/lib/gcc/avr/4.6.3/../../../../avr/lib/avr6/libm.a(fp_nan.o)
 .text          0x00000000        0x0 /home/jin/local/avr/lib/gcc/avr/4.6.3/../../../../avr/lib/avr6/libm.a(fp_negdi.o)
 .data          0x00000000        0x0 /home/jin/local/avr/lib/gcc/avr/4.6.3/../../../../avr/lib/avr6/libm.a(fp_negdi.o)
 .bss           0x00000000        0x0 /home/jin/local/avr/lib/gcc/avr/4.6.3/../../../../avr/lib/avr6/libm.a(fp_negdi.o)
 .text          0x00000000        0x0 /home/jin/local/avr/lib/gcc/avr/4.6.3/../../../../avr/lib/avr6/libm.a(fp_pscA.o)
 .data          0x00000000        0x0 /home/jin/local/avr/lib/gcc/avr/4.6.3/../../../../avr/lib/avr6/libm.a(fp_pscA.o)
 .bss           0x00000000        0x0 /home/jin/local/avr/lib/gcc/avr/4.6.3/../../../../avr/lib/avr6/libm.a(fp_pscA.o)
 .text          0x00000000        0x0 /home/jin/local/avr/lib/gcc/avr/4.6.3/../../../../avr/lib/avr6/libm.a(fp_pscB.o)
 .data          0x00000000        0x0 /home/jin/local/avr/lib/gcc/avr/4.6.3/../../../../avr/lib/avr6/libm.a(fp_pscB.o)
 .bss           0x00000000        0x0 /home/jin/local/avr/lib/gcc/avr/4.6.3/../../../../avr/lib/avr6/libm.a(fp_pscB.o)
 .text          0x00000000        0x0 /home/jin/local/avr/lib/gcc/avr/4.6.3/../../../../avr/lib/avr6/libm.a(fp_round.o)
 .data          0x00000000        0x0 /home/jin/local/avr/lib/gcc/avr/4.6.3/../../../../avr/lib/avr6/libm.a(fp_round.o)
 .bss           0x00000000        0x0 /home/jin/local/avr/lib/gcc/avr/4.6.3/../../../../avr/lib/avr6/libm.a(fp_round.o)
 .text          0x00000000        0x0 /home/jin/local/avr/lib/gcc/avr/4.6.3/../../../../avr/lib/avr6/libm.a(fp_split3.o)
 .data          0x00000000        0x0 /home/jin/local/avr/lib/gcc/avr/4.6.3/../../../../avr/lib/avr6/libm.a(fp_split3.o)
 .bss           0x00000000        0x0 /home/jin/local/avr/lib/gcc/avr/4.6.3/../../../../avr/lib/avr6/libm.a(fp_split3.o)
 .text          0x00000000        0x0 /home/jin/local/avr/lib/gcc/avr/4.6.3/../../../../avr/lib/avr6/libm.a(fp_trunc.o)
 .data          0x00000000        0x0 /home/jin/local/avr/lib/gcc/avr/4.6.3/../../../../avr/lib/avr6/libm.a(fp_trunc.o)
 .bss           0x00000000        0x0 /home/jin/local/avr/lib/gcc/avr/4.6.3/../../../../avr/lib/avr6/libm.a(fp_trunc.o)
 .text          0x00000000        0x0 /home/jin/local/avr/lib/gcc/avr/4.6.3/../../../../avr/lib/avr6/libm.a(fp_zero.o)
 .data          0x00000000        0x0 /home/jin/local/avr/lib/gcc/avr/4.6.3/../../../../avr/lib/avr6/libm.a(fp_zero.o)
 .bss           0x00000000        0x0 /home/jin/local/avr/lib/gcc/avr/4.6.3/../../../../avr/lib/avr6/libm.a(fp_zero.o)
 .text          0x00000000        0x0 /home/jin/local/avr/lib/gcc/avr/4.6.3/../../../../avr/lib/avr6/libm.a(gesf2.o)
 .data          0x00000000        0x0 /home/jin/local/avr/lib/gcc/avr/4.6.3/../../../../avr/lib/avr6/libm.a(gesf2.o)
 .bss           0x00000000        0x0 /home/jin/local/avr/lib/gcc/avr/4.6.3/../../../../avr/lib/avr6/libm.a(gesf2.o)
 .text          0x00000000        0x0 /home/jin/local/avr/lib/gcc/avr/4.6.3/../../../../avr/lib/avr6/libm.a(log.o)
 .data          0x00000000        0x0 /home/jin/local/avr/lib/gcc/avr/4.6.3/../../../../avr/lib/avr6/libm.a(log.o)
 .bss           0x00000000        0x0 /home/jin/local/avr/lib/gcc/avr/4.6.3/../../../../avr/lib/avr6/libm.a(log.o)
 .text          0x00000000        0x0 /home/jin/local/avr/lib/gcc/avr/4.6.3/../../../../avr/lib/avr6/libm.a(mulsf3.o)
 .data          0x00000000        0x0 /home/jin/local/avr/lib/gcc/avr/4.6.3/../../../../avr/lib/avr6/libm.a(mulsf3.o)
 .bss           0x00000000        0x0 /home/jin/local/avr/lib/gcc/avr/4.6.3/../../../../avr/lib/avr6/libm.a(mulsf3.o)
 .text          0x00000000        0x0 /home/jin/local/avr/lib/gcc/avr/4.6.3/../../../../avr/lib/avr6/libm.a(mulsf3x.o)
 .data          0x00000000        0x0 /home/jin/local/avr/lib/gcc/avr/4.6.3/../../../../avr/lib/avr6/libm.a(mulsf3x.o)
 .bss           0x00000000        0x0 /home/jin/local/avr/lib/gcc/avr/4.6.3/../../../../avr/lib/avr6/libm.a(mulsf3x.o)
 .text          0x00000000        0x0 /home/jin/local/avr/lib/gcc/avr/4.6.3/../../../../avr/lib/avr6/libm.a(sqrt.o)
 .data          0x00000000        0x0 /home/jin/local/avr/lib/gcc/avr/4.6.3/../../../../avr/lib/avr6/libm.a(sqrt.o)
 .bss           0x00000000        0x0 /home/jin/local/avr/lib/gcc/avr/4.6.3/../../../../avr/lib/avr6/libm.a(sqrt.o)
 .text          0x00000000        0x0 /home/jin/local/avr/lib/gcc/avr/4.6.3/../../../../avr/lib/avr6/libm.a(fp_norm2.o)
 .data          0x00000000        0x0 /home/jin/local/avr/lib/gcc/avr/4.6.3/../../../../avr/lib/avr6/libm.a(fp_norm2.o)
 .bss           0x00000000        0x0 /home/jin/local/avr/lib/gcc/avr/4.6.3/../../../../avr/lib/avr6/libm.a(fp_norm2.o)
 .text          0x00000000        0x0 /home/jin/local/avr/lib/gcc/avr/4.6.3/../../../../avr/lib/avr6/libm.a(fp_powser.o)
 .data          0x00000000        0x0 /home/jin/local/avr/lib/gcc/avr/4.6.3/../../../../avr/lib/avr6/libm.a(fp_powser.o)
 .bss           0x00000000        0x0 /home/jin/local/avr/lib/gcc/avr/4.6.3/../../../../avr/lib/avr6/libm.a(fp_powser.o)
 .text          0x00000000        0x0 /home/jin/local/avr/lib/gcc/avr/4.6.3/avr6/libgcc.a(_mulsi3.o)
 .data          0x00000000        0x0 /home/jin/local/avr/lib/gcc/avr/4.6.3/avr6/libgcc.a(_mulsi3.o)
 .bss           0x00000000        0x0 /home/jin/local/avr/lib/gcc/avr/4.6.3/avr6/libgcc.a(_mulsi3.o)
 .text          0x00000000        0x0 /home/jin/local/avr/lib/gcc/avr/4.6.3/avr6/libgcc.a(_udivmodqi4.o)
 .data          0x00000000        0x0 /home/jin/local/avr/lib/gcc/avr/4.6.3/avr6/libgcc.a(_udivmodqi4.o)
 .bss           0x00000000        0x0 /home/jin/local/avr/lib/gcc/avr/4.6.3/avr6/libgcc.a(_udivmodqi4.o)
 .text          0x00000000        0x0 /home/jin/local/avr/lib/gcc/avr/4.6.3/avr6/libgcc.a(_udivmodhi4.o)
 .data          0x00000000        0x0 /home/jin/local/avr/lib/gcc/avr/4.6.3/avr6/libgcc.a(_udivmodhi4.o)
 .bss           0x00000000        0x0 /home/jin/local/avr/lib/gcc/avr/4.6.3/avr6/libgcc.a(_udivmodhi4.o)
 .text          0x00000000        0x0 /home/jin/local/avr/lib/gcc/avr/4.6.3/avr6/libgcc.a(_divmodhi4.o)
 .data          0x00000000        0x0 /home/jin/local/avr/lib/gcc/avr/4.6.3/avr6/libgcc.a(_divmodhi4.o)
 .bss           0x00000000        0x0 /home/jin/local/avr/lib/gcc/avr/4.6.3/avr6/libgcc.a(_divmodhi4.o)
 .text          0x00000000        0x0 /home/jin/local/avr/lib/gcc/avr/4.6.3/avr6/libgcc.a(_udivmodsi4.o)
 .data          0x00000000        0x0 /home/jin/local/avr/lib/gcc/avr/4.6.3/avr6/libgcc.a(_udivmodsi4.o)
 .bss           0x00000000        0x0 /home/jin/local/avr/lib/gcc/avr/4.6.3/avr6/libgcc.a(_udivmodsi4.o)
 .text          0x00000000        0x0 /home/jin/local/avr/lib/gcc/avr/4.6.3/avr6/libgcc.a(_divmodsi4.o)
 .data          0x00000000        0x0 /home/jin/local/avr/lib/gcc/avr/4.6.3/avr6/libgcc.a(_divmodsi4.o)
 .bss           0x00000000        0x0 /home/jin/local/avr/lib/gcc/avr/4.6.3/avr6/libgcc.a(_divmodsi4.o)
 .text          0x00000000        0x0 /home/jin/local/avr/lib/gcc/avr/4.6.3/avr6/libgcc.a(_exit.o)
 .data          0x00000000        0x0 /home/jin/local/avr/lib/gcc/avr/4.6.3/avr6/libgcc.a(_exit.o)
 .bss           0x00000000        0x0 /home/jin/local/avr/lib/gcc/avr/4.6.3/avr6/libgcc.a(_exit.o)
 .text.libgcc   0x00000000        0x0 /home/jin/local/avr/lib/gcc/avr/4.6.3/avr6/libgcc.a(_exit.o)
 .text          0x00000000        0x0 /home/jin/local/avr/lib/gcc/avr/4.6.3/avr6/libgcc.a(_copy_data.o)
 .data          0x00000000        0x0 /home/jin/local/avr/lib/gcc/avr/4.6.3/avr6/libgcc.a(_copy_data.o)
 .bss           0x00000000        0x0 /home/jin/local/avr/lib/gcc/avr/4.6.3/avr6/libgcc.a(_copy_data.o)
 .text.libgcc   0x00000000        0x0 /home/jin/local/avr/lib/gcc/avr/4.6.3/avr6/libgcc.a(_copy_data.o)
 .text          0x00000000        0x0 /home/jin/local/avr/lib/gcc/avr/4.6.3/avr6/libgcc.a(_clear_bss.o)
 .data          0x00000000        0x0 /home/jin/local/avr/lib/gcc/avr/4.6.3/avr6/libgcc.a(_clear_bss.o)
 .bss           0x00000000        0x0 /home/jin/local/avr/lib/gcc/avr/4.6.3/avr6/libgcc.a(_clear_bss.o)
 .text.libgcc   0x00000000        0x0 /home/jin/local/avr/lib/gcc/avr/4.6.3/avr6/libgcc.a(_clear_bss.o)
 .text          0x00000000        0x0 /home/jin/local/avr/lib/gcc/avr/4.6.3/avr6/libgcc.a(_ctors.o)
 .data          0x00000000        0x0 /home/jin/local/avr/lib/gcc/avr/4.6.3/avr6/libgcc.a(_ctors.o)
 .bss           0x00000000        0x0 /home/jin/local/avr/lib/gcc/avr/4.6.3/avr6/libgcc.a(_ctors.o)
 .text.libgcc   0x00000000        0x0 /home/jin/local/avr/lib/gcc/avr/4.6.3/avr6/libgcc.a(_ctors.o)
 .data          0x00000000        0x0 /home/jin/local/avr/lib/gcc/avr/4.6.3/avr6/libgcc.a(_muldi3.o)
 .bss           0x00000000        0x0 /home/jin/local/avr/lib/gcc/avr/4.6.3/avr6/libgcc.a(_muldi3.o)
 .data          0x00000000        0x0 /home/jin/local/avr/lib/gcc/avr/4.6.3/avr6/libgcc.a(_lshrdi3.o)
 .bss           0x00000000        0x0 /home/jin/local/avr/lib/gcc/avr/4.6.3/avr6/libgcc.a(_lshrdi3.o)
 .data          0x00000000        0x0 /home/jin/local/avr/lib/gcc/avr/4.6.3/avr6/libgcc.a(_ashldi3.o)
 .bss           0x00000000        0x0 /home/jin/local/avr/lib/gcc/avr/4.6.3/avr6/libgcc.a(_ashldi3.o)
 .data          0x00000000        0x0 /home/jin/local/avr/lib/gcc/avr/4.6.3/avr6/libgcc.a(_ashrdi3.o)
 .bss           0x00000000        0x0 /home/jin/local/avr/lib/gcc/avr/4.6.3/avr6/libgcc.a(_ashrdi3.o)
 .data          0x00000000        0x0 /home/jin/local/avr/lib/gcc/avr/4.6.3/avr6/libgcc.a(_divdi3.o)
 .bss           0x00000000        0x0 /home/jin/local/avr/lib/gcc/avr/4.6.3/avr6/libgcc.a(_divdi3.o)
 .text          0x00000000        0x0 /home/jin/local/avr/lib/gcc/avr/4.6.3/avr6/libgcc.a(_prologue.o)
 .data          0x00000000        0x0 /home/jin/local/avr/lib/gcc/avr/4.6.3/avr6/libgcc.a(_prologue.o)
 .bss           0x00000000        0x0 /home/jin/local/avr/lib/gcc/avr/4.6.3/avr6/libgcc.a(_prologue.o)
 .text          0x00000000        0x0 /home/jin/local/avr/lib/gcc/avr/4.6.3/avr6/libgcc.a(_epilogue.o)
 .data          0x00000000        0x0 /home/jin/local/avr/lib/gcc/avr/4.6.3/avr6/libgcc.a(_epilogue.o)
 .bss           0x00000000        0x0 /home/jin/local/avr/lib/gcc/avr/4.6.3/avr6/libgcc.a(_epilogue.o)
 .text          0x00000000        0x0 /home/jin/local/avr/lib/gcc/avr/4.6.3/avr6/libgcc.a(_tablejump_elpm.o)
 .data          0x00000000        0x0 /home/jin/local/avr/lib/gcc/avr/4.6.3/avr6/libgcc.a(_tablejump_elpm.o)
 .bss           0x00000000        0x0 /home/jin/local/avr/lib/gcc/avr/4.6.3/avr6/libgcc.a(_tablejump_elpm.o)
 .text          0x00000000        0x0 /home/jin/local/avr/lib/gcc/avr/4.6.3/avr6/libgcc.a(_clz.o)
 .bss           0x00000000        0x0 /home/jin/local/avr/lib/gcc/avr/4.6.3/avr6/libgcc.a(_clz.o)
 .text          0x00000000        0x0 /home/jin/local/avr/lib/gcc/avr/4.6.3/../../../../avr/lib/avr6/libc.a(strlcpy_P.o)
 .data          0x00000000        0x0 /home/jin/local/avr/lib/gcc/avr/4.6.3/../../../../avr/lib/avr6/libc.a(strlcpy_P.o)
 .bss           0x00000000        0x0 /home/jin/local/avr/lib/gcc/avr/4.6.3/../../../../avr/lib/avr6/libc.a(strlcpy_P.o)
 .text          0x00000000       0x12 /home/jin/local/avr/lib/gcc/avr/4.6.3/../../../../avr/lib/avr6/libc.a(memcpy_PF.o)
 .data          0x00000000        0x0 /home/jin/local/avr/lib/gcc/avr/4.6.3/../../../../avr/lib/avr6/libc.a(memcpy_PF.o)
 .bss           0x00000000        0x0 /home/jin/local/avr/lib/gcc/avr/4.6.3/../../../../avr/lib/avr6/libc.a(memcpy_PF.o)
 .stab          0x00000000       0x90 /home/jin/local/avr/lib/gcc/avr/4.6.3/../../../../avr/lib/avr6/libc.a(memcpy_PF.o)
                                 0x9c (size before relaxing)
 .text          0x00000000        0x0 /home/jin/local/avr/lib/gcc/avr/4.6.3/../../../../avr/lib/avr6/libc.a(memcpy.o)
 .data          0x00000000        0x0 /home/jin/local/avr/lib/gcc/avr/4.6.3/../../../../avr/lib/avr6/libc.a(memcpy.o)
 .bss           0x00000000        0x0 /home/jin/local/avr/lib/gcc/avr/4.6.3/../../../../avr/lib/avr6/libc.a(memcpy.o)
 .text          0x00000000        0x0 /home/jin/local/avr/lib/gcc/avr/4.6.3/../../../../avr/lib/avr6/libc.a(memset.o)
 .data          0x00000000        0x0 /home/jin/local/avr/lib/gcc/avr/4.6.3/../../../../avr/lib/avr6/libc.a(memset.o)
 .bss           0x00000000        0x0 /home/jin/local/avr/lib/gcc/avr/4.6.3/../../../../avr/lib/avr6/libc.a(memset.o)
 .text          0x00000000        0x0 /home/jin/local/avr/lib/gcc/avr/4.6.3/../../../../avr/lib/avr6/libc.a(strchr.o)
 .data          0x00000000        0x0 /home/jin/local/avr/lib/gcc/avr/4.6.3/../../../../avr/lib/avr6/libc.a(strchr.o)
 .bss           0x00000000        0x0 /home/jin/local/avr/lib/gcc/avr/4.6.3/../../../../avr/lib/avr6/libc.a(strchr.o)
 .text          0x00000000        0x0 /home/jin/local/avr/lib/gcc/avr/4.6.3/../../../../avr/lib/avr6/libc.a(strcmp.o)
 .data          0x00000000        0x0 /home/jin/local/avr/lib/gcc/avr/4.6.3/../../../../avr/lib/avr6/libc.a(strcmp.o)
 .bss           0x00000000        0x0 /home/jin/local/avr/lib/gcc/avr/4.6.3/../../../../avr/lib/avr6/libc.a(strcmp.o)
 .text          0x00000000        0x0 /home/jin/local/avr/lib/gcc/avr/4.6.3/../../../../avr/lib/avr6/libc.a(strncmp.o)
 .data          0x00000000        0x0 /home/jin/local/avr/lib/gcc/avr/4.6.3/../../../../avr/lib/avr6/libc.a(strncmp.o)
 .bss           0x00000000        0x0 /home/jin/local/avr/lib/gcc/avr/4.6.3/../../../../avr/lib/avr6/libc.a(strncmp.o)
 .text          0x00000000        0x0 /home/jin/local/avr/lib/gcc/avr/4.6.3/../../../../avr/lib/avr6/libc.a(strncpy.o)
 .data          0x00000000        0x0 /home/jin/local/avr/lib/gcc/avr/4.6.3/../../../../avr/lib/avr6/libc.a(strncpy.o)
 .bss           0x00000000        0x0 /home/jin/local/avr/lib/gcc/avr/4.6.3/../../../../avr/lib/avr6/libc.a(strncpy.o)
 .stab          0x00000000       0xcc /home/jin/local/avr/lib/gcc/avr/4.6.3/../../../../avr/lib/avr6/libc.a(strncpy.o)
                                 0xd8 (size before relaxing)
 .text.avr-libc
                0x00000000       0x1e /home/jin/local/avr/lib/gcc/avr/4.6.3/../../../../avr/lib/avr6/libc.a(strncpy.o)
 .text          0x00000000        0x0 /home/jin/local/avr/lib/gcc/avr/4.6.3/../../../../avr/lib/avr6/libc.a(strrchr.o)
 .data          0x00000000        0x0 /home/jin/local/avr/lib/gcc/avr/4.6.3/../../../../avr/lib/avr6/libc.a(strrchr.o)
 .bss           0x00000000        0x0 /home/jin/local/avr/lib/gcc/avr/4.6.3/../../../../avr/lib/avr6/libc.a(strrchr.o)
 .text          0x00000000        0x0 /home/jin/local/avr/lib/gcc/avr/4.6.3/../../../../avr/lib/avr6/libc.a(eerd_block_atmega2560.o)
 .data          0x00000000        0x0 /home/jin/local/avr/lib/gcc/avr/4.6.3/../../../../avr/lib/avr6/libc.a(eerd_block_atmega2560.o)
 .bss           0x00000000        0x0 /home/jin/local/avr/lib/gcc/avr/4.6.3/../../../../avr/lib/avr6/libc.a(eerd_block_atmega2560.o)
 .text          0x00000000        0x0 /home/jin/local/avr/lib/gcc/avr/4.6.3/../../../../avr/lib/avr6/libc.a(eerd_byte_atmega2560.o)
 .data          0x00000000        0x0 /home/jin/local/avr/lib/gcc/avr/4.6.3/../../../../avr/lib/avr6/libc.a(eerd_byte_atmega2560.o)
 .bss           0x00000000        0x0 /home/jin/local/avr/lib/gcc/avr/4.6.3/../../../../avr/lib/avr6/libc.a(eerd_byte_atmega2560.o)
 .stab          0x00000000       0x90 /home/jin/local/avr/lib/gcc/avr/4.6.3/../../../../avr/lib/avr6/libc.a(eerd_byte_atmega2560.o)
                                 0x9c (size before relaxing)
 .text.avr-libc
                0x00000000       0x10 /home/jin/local/avr/lib/gcc/avr/4.6.3/../../../../avr/lib/avr6/libc.a(eerd_byte_atmega2560.o)
 .text          0x00000000        0x0 /home/jin/local/avr/lib/gcc/avr/4.6.3/../../../../avr/lib/avr6/libc.a(eerd_dword_atmega2560.o)
 .data          0x00000000        0x0 /home/jin/local/avr/lib/gcc/avr/4.6.3/../../../../avr/lib/avr6/libc.a(eerd_dword_atmega2560.o)
 .bss           0x00000000        0x0 /home/jin/local/avr/lib/gcc/avr/4.6.3/../../../../avr/lib/avr6/libc.a(eerd_dword_atmega2560.o)
 .text          0x00000000        0x0 /home/jin/local/avr/lib/gcc/avr/4.6.3/../../../../avr/lib/avr6/libc.a(eewr_block_atmega2560.o)
 .data          0x00000000        0x0 /home/jin/local/avr/lib/gcc/avr/4.6.3/../../../../avr/lib/avr6/libc.a(eewr_block_atmega2560.o)
 .bss           0x00000000        0x0 /home/jin/local/avr/lib/gcc/avr/4.6.3/../../../../avr/lib/avr6/libc.a(eewr_block_atmega2560.o)
 .text          0x00000000        0x0 /home/jin/local/avr/lib/gcc/avr/4.6.3/../../../../avr/lib/avr6/libc.a(eewr_byte_atmega2560.o)
 .data          0x00000000        0x0 /home/jin/local/avr/lib/gcc/avr/4.6.3/../../../../avr/lib/avr6/libc.a(eewr_byte_atmega2560.o)
 .bss           0x00000000        0x0 /home/jin/local/avr/lib/gcc/avr/4.6.3/../../../../avr/lib/avr6/libc.a(eewr_byte_atmega2560.o)
 .text          0x00000000        0x0 /home/jin/local/avr/lib/gcc/avr/4.6.3/../../../../avr/lib/avr6/libc.a(eewr_dword_atmega2560.o)
 .data          0x00000000        0x0 /home/jin/local/avr/lib/gcc/avr/4.6.3/../../../../avr/lib/avr6/libc.a(eewr_dword_atmega2560.o)
 .bss           0x00000000        0x0 /home/jin/local/avr/lib/gcc/avr/4.6.3/../../../../avr/lib/avr6/libc.a(eewr_dword_atmega2560.o)
 .text          0x00000000        0x0 /home/jin/local/avr/lib/gcc/avr/4.6.3/../../../../avr/lib/avr6/libc.a(eewr_word_atmega2560.o)
 .data          0x00000000        0x0 /home/jin/local/avr/lib/gcc/avr/4.6.3/../../../../avr/lib/avr6/libc.a(eewr_word_atmega2560.o)
 .bss           0x00000000        0x0 /home/jin/local/avr/lib/gcc/avr/4.6.3/../../../../avr/lib/avr6/libc.a(eewr_word_atmega2560.o)

Memory Configuration

Name             Origin             Length             Attributes
text             0x00000000         0x00100000         xr
data             0x00800200         0x0000fe00         rw !x
eeprom           0x00810000         0x00010000         rw !x
fuse             0x00820000         0x00000400         rw !x
lock             0x00830000         0x00000400         rw !x
signature        0x00840000         0x00000400         rw !x
*default*        0x00000000         0xffffffff

Linker script and memory map

Address of section .data set to 0x800200
LOAD /home/jin/local/avr/lib/gcc/avr/4.6.3/../../../../avr/lib/avr6/crtm2560.o
LOAD build/mighty_one-2560/MightyBoard/Motherboard/Command.o
LOAD build/mighty_one-2560/MightyBoard/Motherboard/DebugPacketProcessor.o
LOAD build/mighty_one-2560/MightyBoard/Motherboard/EepromMap.o
LOAD build/mighty_one-2560/MightyBoard/Motherboard/Host.o
LOAD build/mighty_one-2560/MightyBoard/Motherboard/Main.o
LOAD build/mighty_one-2560/MightyBoard/Motherboard/Motherboard.o
LOAD build/mighty_one-2560/MightyBoard/Motherboard/Piezo.o
LOAD build/mighty_one-2560/MightyBoard/Motherboard/Point.o
LOAD build/mighty_one-2560/MightyBoard/Motherboard/SDCard.o
LOAD build/mighty_one-2560/MightyBoard/Motherboard/SkewTilt.o
LOAD build/mighty_one-2560/MightyBoard/Motherboard/SoftI2cManager.o
LOAD build/mighty_one-2560/MightyBoard/Motherboard/StepperAccel.o
LOAD build/mighty_one-2560/MightyBoard/Motherboard/StepperAccelPlanner.o
LOAD build/mighty_one-2560/MightyBoard/Motherboard/StepperAxis.o
LOAD build/mighty_one-2560/MightyBoard/Motherboard/Steppers.o
LOAD build/mighty_one-2560/MightyBoard/Motherboard/TWI.o
LOAD build/mighty_one-2560/MightyBoard/Motherboard/UtilityScripts.o
LOAD build/mighty_one-2560/MightyBoard/Motherboard/boards/mighty_one/ButtonArray.o
LOAD build/mighty_one-2560/MightyBoard/Motherboard/boards/mighty_one/Cutoff.o
LOAD build/mighty_one-2560/MightyBoard/Motherboard/boards/mighty_one/ExtruderBoard.o
LOAD build/mighty_one-2560/MightyBoard/Motherboard/boards/mighty_one/RGB_LED.o
LOAD build/mighty_one-2560/MightyBoard/Motherboard/lib_sd/byteordering.o
LOAD build/mighty_one-2560/MightyBoard/Motherboard/lib_sd/fat.o
LOAD build/mighty_one-2560/MightyBoard/Motherboard/lib_sd/partition.o
LOAD build/mighty_one-2560/MightyBoard/Motherboard/lib_sd/sd_crc.o
LOAD build/mighty_one-2560/MightyBoard/Motherboard/lib_sd/sd_raw.o
LOAD build/mighty_one-2560/MightyBoard/shared/AnalogPin.o
LOAD build/mighty_one-2560/MightyBoard/shared/AvrPort.o
LOAD build/mighty_one-2560/MightyBoard/shared/CoolingFan.o
LOAD build/mighty_one-2560/MightyBoard/shared/DigiPots.o
LOAD build/mighty_one-2560/MightyBoard/shared/Eeprom.o
LOAD build/mighty_one-2560/MightyBoard/shared/Heater.o
LOAD build/mighty_one-2560/MightyBoard/shared/Interface.o
LOAD build/mighty_one-2560/MightyBoard/shared/InterfaceBoard.o
LOAD build/mighty_one-2560/MightyBoard/shared/LiquidCrystalSerial.o
LOAD build/mighty_one-2560/MightyBoard/shared/Menu.o
LOAD build/mighty_one-2560/MightyBoard/shared/PID.o
LOAD build/mighty_one-2560/MightyBoard/shared/PSU.o
LOAD build/mighty_one-2560/MightyBoard/shared/Packet.o
LOAD build/mighty_one-2560/MightyBoard/shared/Pin.o
LOAD build/mighty_one-2560/MightyBoard/shared/TemperatureTable.o
LOAD build/mighty_one-2560/MightyBoard/shared/Thermistor.o
LOAD build/mighty_one-2560/MightyBoard/shared/Thermocouple.o
LOAD build/mighty_one-2560/MightyBoard/shared/Timeout.o
LOAD build/mighty_one-2560/MightyBoard/shared/UART.o
LOAD build/mighty_one-2560/MightyBoard/Motherboard/avrfix/avrfix.o
LOAD /home/jin/local/avr/lib/gcc/avr/4.6.3/../../../../avr/lib/avr6/libm.a
LOAD /home/jin/local/avr/lib/gcc/avr/4.6.3/avr6/libgcc.a
LOAD /home/jin/local/avr/lib/gcc/avr/4.6.3/../../../../avr/lib/avr6/libc.a
LOAD /home/jin/local/avr/lib/gcc/avr/4.6.3/avr6/libgcc.a

.hash
 *(.hash)

.dynsym
 *(.dynsym)

.dynstr
 *(.dynstr)

.gnu.version
 *(.gnu.version)

.gnu.version_d
 *(.gnu.version_d)

.gnu.version_r
 *(.gnu.version_r)

.rel.init
 *(.rel.init)

.rela.init
 *(.rela.init)

.rel.text
 *(.rel.text)
 *(.rel.text.*)
 *(.rel.gnu.linkonce.t*)

.rela.text
 *(.rela.text)
 *(.rela.text.*)
 *(.rela.gnu.linkonce.t*)

.rel.fini
 *(.rel.fini)

.rela.fini
 *(.rela.fini)

.rel.rodata
 *(.rel.rodata)
 *(.rel.rodata.*)
 *(.rel.gnu.linkonce.r*)

.rela.rodata
 *(.rela.rodata)
 *(.rela.rodata.*)
 *(.rela.gnu.linkonce.r*)

.rel.data
 *(.rel.data)
 *(.rel.data.*)
 *(.rel.gnu.linkonce.d*)

.rela.data
 *(.rela.data)
 *(.rela.data.*)
 *(.rela.gnu.linkonce.d*)

.rel.ctors
 *(.rel.ctors)

.rela.ctors
 *(.rela.ctors)

.rel.dtors
 *(.rel.dtors)

.rela.dtors
 *(.rela.dtors)

.rel.got
 *(.rel.got)

.rela.got
 *(.rela.got)

.rel.bss
 *(.rel.bss)

.rela.bss
 *(.rela.bss)

.rel.plt
 *(.rel.plt)

.rela.plt
 *(.rela.plt)

.text           0x00000000    0x1e2b0
 *(.vectors)
 .vectors       0x00000000       0xe4 /home/jin/local/avr/lib/gcc/avr/4.6.3/../../../../avr/lib/avr6/crtm2560.o
                0x00000000                __vectors
                0x00000000                __vector_default
 *(.vectors)
 *(.progmem.gcc*)
 .progmem.gcc_sw_table
                0x000000e4       0x38 build/mighty_one-2560/MightyBoard/Motherboard/Host.o
 .progmem.gcc_fplib
                0x0000011c       0x5a /home/jin/local/avr/lib/gcc/avr/4.6.3/../../../../avr/lib/avr6/libm.a(log.o)
 *(.progmem*)
 .progmem.data  0x00000176      0x1cb build/mighty_one-2560/MightyBoard/Motherboard/Command.o
 .progmem.data  0x00000341      0x131 build/mighty_one-2560/MightyBoard/Motherboard/Motherboard.o
 .progmem.data  0x00000472      0x144 build/mighty_one-2560/MightyBoard/Motherboard/Piezo.o
 .progmem.data  0x000005b6      0x800 build/mighty_one-2560/MightyBoard/Motherboard/StepperAccel.o
 .progmem.data  0x00000db6       0x9f build/mighty_one-2560/MightyBoard/Motherboard/UtilityScripts.o
 .progmem.data  0x00000e55      0x200 build/mighty_one-2560/MightyBoard/Motherboard/lib_sd/sd_crc.o
 .progmem.data  0x00001055      0x1ce build/mighty_one-2560/MightyBoard/shared/InterfaceBoard.o
 .progmem.data  0x00001223     0x1250 build/mighty_one-2560/MightyBoard/shared/LiquidCrystalSerial.o
 .progmem.data  0x00002473      0xd95 build/mighty_one-2560/MightyBoard/shared/Menu.o
                0x00003208                . = ALIGN (0x2)
                0x00003208                __trampolines_start = .
 *(.trampolines)
 .trampolines   0x00003208        0x0 linker stubs
 *(.trampolines*)
                0x00003208                __trampolines_end = .
 *(.jumptables)
 *(.jumptables*)
 *(.lowtext)
 *(.lowtext*)
                0x00003208                __ctors_start = .
 *(.ctors)
 .ctors         0x00003208        0x2 build/mighty_one-2560/MightyBoard/Motherboard/Command.o
 .ctors         0x0000320a        0x2 build/mighty_one-2560/MightyBoard/Motherboard/EepromMap.o
 .ctors         0x0000320c        0x2 build/mighty_one-2560/MightyBoard/Motherboard/Host.o
 .ctors         0x0000320e        0x2 build/mighty_one-2560/MightyBoard/Motherboard/Main.o
 .ctors         0x00003210        0x2 build/mighty_one-2560/MightyBoard/Motherboard/Motherboard.o
 .ctors         0x00003212        0x2 build/mighty_one-2560/MightyBoard/Motherboard/Piezo.o
 .ctors         0x00003214        0x2 build/mighty_one-2560/MightyBoard/Motherboard/SDCard.o
 .ctors         0x00003216        0x2 build/mighty_one-2560/MightyBoard/Motherboard/SoftI2cManager.o
 .ctors         0x00003218        0x2 build/mighty_one-2560/MightyBoard/Motherboard/StepperAccel.o
 .ctors         0x0000321a        0x2 build/mighty_one-2560/MightyBoard/Motherboard/StepperAccelPlanner.o
 .ctors         0x0000321c        0x2 build/mighty_one-2560/MightyBoard/Motherboard/StepperAxis.o
 .ctors         0x0000321e        0x2 build/mighty_one-2560/MightyBoard/Motherboard/Steppers.o
 .ctors         0x00003220        0x2 build/mighty_one-2560/MightyBoard/Motherboard/UtilityScripts.o
 .ctors         0x00003222        0x2 build/mighty_one-2560/MightyBoard/Motherboard/boards/mighty_one/ButtonArray.o
 .ctors         0x00003224        0x2 build/mighty_one-2560/MightyBoard/Motherboard/boards/mighty_one/Cutoff.o
 .ctors         0x00003226        0x2 build/mighty_one-2560/MightyBoard/Motherboard/boards/mighty_one/ExtruderBoard.o
 .ctors         0x00003228        0x2 build/mighty_one-2560/MightyBoard/Motherboard/boards/mighty_one/RGB_LED.o
 .ctors         0x0000322a        0x2 build/mighty_one-2560/MightyBoard/Motherboard/lib_sd/fat.o
 .ctors         0x0000322c        0x2 build/mighty_one-2560/MightyBoard/Motherboard/lib_sd/partition.o
 .ctors         0x0000322e        0x2 build/mighty_one-2560/MightyBoard/Motherboard/lib_sd/sd_raw.o
 .ctors         0x00003230        0x2 build/mighty_one-2560/MightyBoard/shared/AvrPort.o
 .ctors         0x00003232        0x2 build/mighty_one-2560/MightyBoard/shared/CoolingFan.o
 .ctors         0x00003234        0x2 build/mighty_one-2560/MightyBoard/shared/DigiPots.o
 .ctors         0x00003236        0x2 build/mighty_one-2560/MightyBoard/shared/Eeprom.o
 .ctors         0x00003238        0x2 build/mighty_one-2560/MightyBoard/shared/Heater.o
 .ctors         0x0000323a        0x2 build/mighty_one-2560/MightyBoard/shared/Interface.o
 .ctors         0x0000323c        0x2 build/mighty_one-2560/MightyBoard/shared/InterfaceBoard.o
 .ctors         0x0000323e        0x2 build/mighty_one-2560/MightyBoard/shared/LiquidCrystalSerial.o
 .ctors         0x00003240        0x2 build/mighty_one-2560/MightyBoard/shared/Menu.o
 .ctors         0x00003242        0x2 build/mighty_one-2560/MightyBoard/shared/PSU.o
 .ctors         0x00003244        0x2 build/mighty_one-2560/MightyBoard/shared/Pin.o
 .ctors         0x00003246        0x2 build/mighty_one-2560/MightyBoard/shared/Thermocouple.o
 .ctors         0x00003248        0x2 build/mighty_one-2560/MightyBoard/shared/Timeout.o
 .ctors         0x0000324a        0x2 build/mighty_one-2560/MightyBoard/shared/UART.o
                0x0000324c                __ctors_end = .
                0x0000324c                __dtors_start = .
 *(.dtors)
                0x0000324c                __dtors_end = .
 SORT(*)(.ctors)
 SORT(*)(.dtors)
 *(.init0)
 .init0         0x0000324c        0x0 /home/jin/local/avr/lib/gcc/avr/4.6.3/../../../../avr/lib/avr6/crtm2560.o
                0x0000324c                __init
 *(.init0)
 *(.init1)
 .init1         0x0000324c       0x14 build/mighty_one-2560/MightyBoard/Motherboard/Main.o
                0x0000324c                _Z10StackPaintv
 *(.init1)
 *(.init2)
 .init2         0x00003260       0x10 /home/jin/local/avr/lib/gcc/avr/4.6.3/../../../../avr/lib/avr6/crtm2560.o
 *(.init2)
 *(.init3)
 *(.init3)
 *(.init4)
 .init4         0x00003270       0x1a /home/jin/local/avr/lib/gcc/avr/4.6.3/avr6/libgcc.a(_copy_data.o)
                0x00003270                __do_copy_data
 .init4         0x0000328a       0x10 /home/jin/local/avr/lib/gcc/avr/4.6.3/avr6/libgcc.a(_clear_bss.o)
                0x0000328a                __do_clear_bss
 *(.init4)
 *(.init5)
 *(.init5)
 *(.init6)
 .init6         0x0000329a       0x20 /home/jin/local/avr/lib/gcc/avr/4.6.3/avr6/libgcc.a(_ctors.o)
                0x0000329a                __do_global_ctors
 *(.init6)
 *(.init7)
 *(.init7)
 *(.init8)
 *(.init8)
 *(.init9)
 .init9         0x000032ba        0x8 /home/jin/local/avr/lib/gcc/avr/4.6.3/../../../../avr/lib/avr6/crtm2560.o
 *(.init9)
 *(.text)
 .text          0x000032c2        0x4 /home/jin/local/avr/lib/gcc/avr/4.6.3/../../../../avr/lib/avr6/crtm2560.o
                0x000032c2                __vector_38
                0x000032c2                __vector_22
                0x000032c2                __vector_28
                0x000032c2                __vector_1
                0x000032c2                __vector_34
                0x000032c2                __vector_24
                0x000032c2                __vector_12
                0x000032c2                __vector_55
                0x000032c2                __vector_46
                0x000032c2                __bad_interrupt
                0x000032c2                __vector_6
                0x000032c2                __vector_31
                0x000032c2                __vector_35
                0x000032c2                __vector_39
                0x000032c2                __vector_3
                0x000032c2                __vector_23
                0x000032c2                __vector_30
                0x000032c2                __vector_45
                0x000032c2                __vector_11
                0x000032c2                __vector_54
                0x000032c2                __vector_17
                0x000032c2                __vector_19
                0x000032c2                __vector_56
                0x000032c2                __vector_7
                0x000032c2                __vector_49
                0x000032c2                __vector_41
                0x000032c2                __vector_43
                0x000032c2                __vector_5
                0x000032c2                __vector_33
                0x000032c2                __vector_52
                0x000032c2                __vector_37
                0x000032c2                __vector_4
                0x000032c2                __vector_44
                0x000032c2                __vector_51
                0x000032c2                __vector_9
                0x000032c2                __vector_2
                0x000032c2                __vector_21
                0x000032c2                __vector_15
                0x000032c2                __vector_36
                0x000032c2                __vector_40
                0x000032c2                __vector_8
                0x000032c2                __vector_26
                0x000032c2                __vector_48
                0x000032c2                __vector_14
                0x000032c2                __vector_53
                0x000032c2                __vector_10
                0x000032c2                __vector_50
                0x000032c2                __vector_16
                0x000032c2                __vector_18
                0x000032c2                __vector_20
                0x000032c2                __vector_42
 .text          0x000032c6      0x1a6 /home/jin/local/avr/lib/gcc/avr/4.6.3/avr6/libgcc.a(_muldi3.o)
                0x000032c6                __muldi3
 .text          0x0000346c       0xf4 /home/jin/local/avr/lib/gcc/avr/4.6.3/avr6/libgcc.a(_lshrdi3.o)
                0x0000346c                __lshrdi3
 .text          0x00003560       0xf4 /home/jin/local/avr/lib/gcc/avr/4.6.3/avr6/libgcc.a(_ashldi3.o)
                0x00003560                __ashldi3
 .text          0x00003654       0xdc /home/jin/local/avr/lib/gcc/avr/4.6.3/avr6/libgcc.a(_ashrdi3.o)
                0x00003654                __ashrdi3
 .text          0x00003730      0xf7e /home/jin/local/avr/lib/gcc/avr/4.6.3/avr6/libgcc.a(_divdi3.o)
                0x00003730                __divdi3
                0x000046ae                . = ALIGN (0x2)
 *(.text.*)
 .text._ZN7commandL10pstop_incrEv
                0x000046ae       0x1e build/mighty_one-2560/MightyBoard/Motherboard/Command.o
 .text._ZN7commandL10heatersOffEv
                0x000046cc       0x12 build/mighty_one-2560/MightyBoard/Motherboard/Command.o
 .text._ZN7commandL14cancelMidBuildEv
                0x000046de       0x2a build/mighty_one-2560/MightyBoard/Motherboard/Command.o
 .text._ZN7command20getRemainingCapacityEv
                0x00004708       0x1a build/mighty_one-2560/MightyBoard/Motherboard/Command.o
                0x00004708                _ZN7command20getRemainingCapacityEv
 .text._ZN7command20displayStatusMessageEPKhS1_
                0x00004722       0x70 build/mighty_one-2560/MightyBoard/Motherboard/Command.o
                0x00004722                _ZN7command20displayStatusMessageEPKhS1_
 .text._ZN7command19removeStatusMessageEv
                0x00004792       0x50 build/mighty_one-2560/MightyBoard/Motherboard/Command.o
                0x00004792                _ZN7command19removeStatusMessageEv
 .text._ZN7command18getBuildPercentageEv
                0x000047e2        0x6 build/mighty_one-2560/MightyBoard/Motherboard/Command.o
                0x000047e2                _ZN7command18getBuildPercentageEv
 .text._ZN7command13alevel_updateER5Point
                0x000047e8      0x140 build/mighty_one-2560/MightyBoard/Motherboard/Command.o
                0x000047e8                _ZN7command13alevel_updateER5Point
 .text._ZN7command19pauseUnRetractClearEv
                0x00004928        0x6 build/mighty_one-2560/MightyBoard/Motherboard/Command.o
                0x00004928                _ZN7command19pauseUnRetractClearEv
 .text._ZN7command5pauseEbb
                0x0000492e       0x18 build/mighty_one-2560/MightyBoard/Motherboard/Command.o
                0x0000492e                _ZN7command5pauseEbb
 .text._ZN7command12heatShutdownEv
                0x00004946        0x8 build/mighty_one-2560/MightyBoard/Motherboard/Command.o
                0x00004946                _ZN7command12heatShutdownEv
 .text._ZN7command8isPausedEv
                0x0000494e       0x1c build/mighty_one-2560/MightyBoard/Motherboard/Command.o
                0x0000494e                _ZN7command8isPausedEv
 .text._ZN7command10pauseStateEv
                0x0000496a        0x6 build/mighty_one-2560/MightyBoard/Motherboard/Command.o
                0x0000496a                _ZN7command10pauseStateEv
 .text._ZN7command22pauseIntermediateStateEv
                0x00004970        0xe build/mighty_one-2560/MightyBoard/Motherboard/Command.o
                0x00004970                _ZN7command22pauseIntermediateStateEv
 .text._ZN7command11pauseAtZPosEl
                0x0000497e       0x7e build/mighty_one-2560/MightyBoard/Motherboard/Command.o
                0x0000497e                _ZN7command11pauseAtZPosEl
 .text._ZN7command7isEmptyEv
                0x000049fc       0x14 build/mighty_one-2560/MightyBoard/Motherboard/Command.o
                0x000049fc                _ZN7command7isEmptyEv
 .text._ZN7command4pushEh
                0x00004a10       0x5c build/mighty_one-2560/MightyBoard/Motherboard/Command.o
                0x00004a10                _ZN7command4pushEh
 .text._ZN7command10buildResetEv
                0x00004a6c      0x152 build/mighty_one-2560/MightyBoard/Motherboard/Command.o
                0x00004a6c                _ZN7command10buildResetEv
 .text._ZN7command5resetEv
                0x00004bbe       0x28 build/mighty_one-2560/MightyBoard/Motherboard/Command.o
                0x00004bbe                _ZN7command5resetEv
 .text._ZN7command9isWaitingEv
                0x00004be6        0xe build/mighty_one-2560/MightyBoard/Motherboard/Command.o
                0x00004be6                _ZN7command9isWaitingEv
 .text._ZN7command15retractFilamentEb
                0x00004bf4      0x278 build/mighty_one-2560/MightyBoard/Motherboard/Command.o
                0x00004bf4                _ZN7command15retractFilamentEb
 .text._ZN7command14platformAccessEb
                0x00004e6c      0x594 build/mighty_one-2560/MightyBoard/Motherboard/Command.o
                0x00004e6c                _ZN7command14platformAccessEb
 .text._ZN7command17getFilamentLengthEh
                0x00005400       0xe0 build/mighty_one-2560/MightyBoard/Motherboard/Command.o
                0x00005400                _ZN7command17getFilamentLengthEh
 .text._ZN7command26addFilamentUsedForExtruderEh
                0x000054e0      0x19e build/mighty_one-2560/MightyBoard/Motherboard/Command.o
                0x000054e0                _ZN7command26addFilamentUsedForExtruderEh
 .text._ZN7command15addFilamentUsedEv
                0x0000567e        0xe build/mighty_one-2560/MightyBoard/Motherboard/Command.o
                0x0000567e                _ZN7command15addFilamentUsedEv
 .text._ZN7command21getLastFilamentLengthEh
                0x0000568c       0xe0 build/mighty_one-2560/MightyBoard/Motherboard/Command.o
                0x0000568c                _ZN7command21getLastFilamentLengthEh
 .text._ZN7command12filamentUsedEv
                0x0000576c       0xb4 build/mighty_one-2560/MightyBoard/Motherboard/Command.o
                0x0000576c                _ZN7command12filamentUsedEv
 .text._ZN7command20saveDigiPotsAndPowerEb
                0x00005820       0x42 build/mighty_one-2560/MightyBoard/Motherboard/Command.o
                0x00005820                _ZN7command20saveDigiPotsAndPowerEb
 .text._ZN7command15restoreDigiPotsEv
                0x00005862       0x24 build/mighty_one-2560/MightyBoard/Motherboard/Command.o
                0x00005862                _ZN7command15restoreDigiPotsEv
 .text._ZN7command28processExtruderCommandPacketEa
                0x00005886      0x2ac build/mighty_one-2560/MightyBoard/Motherboard/Command.o
                0x00005886                _ZN7command28processExtruderCommandPacketEa
 .text._ZN7command16handlePauseStateEv
                0x00005b32      0x42a build/mighty_one-2560/MightyBoard/Motherboard/Command.o
                0x00005b32                _ZN7command16handlePauseStateEv
 .text._ZN19CircularBufferTemplIhE3popEv
                0x00005f5c       0x4e build/mighty_one-2560/MightyBoard/Motherboard/Command.o
                0x00005f5c                _ZN19CircularBufferTemplIhE3popEv
 .text._ZN7command5pop32Ev
                0x00005faa       0x54 build/mighty_one-2560/MightyBoard/Motherboard/Command.o
                0x00005faa                _ZN7command5pop32Ev
 .text._ZN7command5pop16Ev
                0x00005ffe       0x24 build/mighty_one-2560/MightyBoard/Motherboard/Command.o
                0x00005ffe                _ZN7command5pop16Ev
 .text._ZN7command4pop8Ev
                0x00006022        0xa build/mighty_one-2560/MightyBoard/Motherboard/Command.o
                0x00006022                _ZN7command4pop8Ev
 .text._ZN7command15runCommandSliceEv
                0x0000602c     0x1e4e build/mighty_one-2560/MightyBoard/Motherboard/Command.o
                0x0000602c                _ZN7command15runCommandSliceEv
 .text.startup._GLOBAL__sub_I__ZN7command15pstop_triggeredE
                0x00007e7a       0x68 build/mighty_one-2560/MightyBoard/Motherboard/Command.o
 .text._ZN6eeprom20setDefaultCoolingFanEj
                0x00007ee2       0x2c build/mighty_one-2560/MightyBoard/Motherboard/EepromMap.o
                0x00007ee2                _ZN6eeprom20setDefaultCoolingFanEj
 .text._ZN6eeprom13setDefaultPIDEj
                0x00007f0e       0x38 build/mighty_one-2560/MightyBoard/Motherboard/EepromMap.o
                0x00007f0e                _ZN6eeprom13setDefaultPIDEj
 .text._ZN6eeprom19setDefaultsExtruderEij
                0x00007f46       0x82 build/mighty_one-2560/MightyBoard/Motherboard/EepromMap.o
                0x00007f46                _ZN6eeprom19setDefaultsExtruderEij
 .text._ZN6eeprom18SetDefaultsThermalEj
                0x00007fc8       0x38 build/mighty_one-2560/MightyBoard/Motherboard/EepromMap.o
                0x00007fc8                _ZN6eeprom18SetDefaultsThermalEj
 .text._ZN6eeprom20setDefaultLedEffectsEj
                0x00008000       0x4a build/mighty_one-2560/MightyBoard/Motherboard/EepromMap.o
                0x00008000                _ZN6eeprom20setDefaultLedEffectsEj
 .text._ZN6eeprom18eeprom_write_soundE5Soundj
                0x0000804a       0x32 build/mighty_one-2560/MightyBoard/Motherboard/EepromMap.o
                0x0000804a                _ZN6eeprom18eeprom_write_soundE5Soundj
 .text._ZN6eeprom21setDefaultBuzzEffectsEj
                0x0000807c       0x10 build/mighty_one-2560/MightyBoard/Motherboard/EepromMap.o
                0x0000807c                _ZN6eeprom21setDefaultBuzzEffectsEj
 .text._ZN6eeprom18setDefaultsPreheatEj
                0x0000808c       0x36 build/mighty_one-2560/MightyBoard/Motherboard/EepromMap.o
                0x0000808c                _ZN6eeprom18setDefaultsPreheatEj
 .text._ZN6eeprom23setDefaultsAccelerationEv
                0x000080c2       0xf2 build/mighty_one-2560/MightyBoard/Motherboard/EepromMap.o
                0x000080c2                _ZN6eeprom23setDefaultsAccelerationEv
 .text._ZN6eeprom27setDefaultAxisHomePositionsEv
                0x000081b4       0x60 build/mighty_one-2560/MightyBoard/Motherboard/EepromMap.o
                0x000081b4                _ZN6eeprom27setDefaultAxisHomePositionsEv
 .text._ZN6eeprom19setDefaultsProfilesEj
                0x00008214       0xea build/mighty_one-2560/MightyBoard/Motherboard/EepromMap.o
                0x00008214                _ZN6eeprom19setDefaultsProfilesEj
 .text._ZN6eeprom16setToolHeadCountEh
                0x000082fe       0x10 build/mighty_one-2560/MightyBoard/Motherboard/EepromMap.o
                0x000082fe                _ZN6eeprom16setToolHeadCountEh
 .text._ZN6eeprom18factoryResetEEPROMEv
                0x0000830e      0x1a4 build/mighty_one-2560/MightyBoard/Motherboard/EepromMap.o
                0x0000830e                _ZN6eeprom18factoryResetEEPROMEv
 .text._ZN6eeprom12isSingleToolEv
                0x000084b2        0x4 build/mighty_one-2560/MightyBoard/Motherboard/EepromMap.o
                0x000084b2                _ZN6eeprom12isSingleToolEv
 .text._ZN6eeprom6hasHBPEv
                0x000084b6       0x16 build/mighty_one-2560/MightyBoard/Motherboard/EepromMap.o
                0x000084b6                _ZN6eeprom6hasHBPEv
 .text._ZN6eeprom11setLanguageEh
                0x000084cc        0xc build/mighty_one-2560/MightyBoard/Motherboard/EepromMap.o
                0x000084cc                _ZN6eeprom11setLanguageEh
 .text._ZN6eeprom12isLanguageCHEv
                0x000084d8       0x16 build/mighty_one-2560/MightyBoard/Motherboard/EepromMap.o
                0x000084d8                _ZN6eeprom12isLanguageCHEv
 .text._ZN6eeprom11isFirstTimeEv
                0x000084ee       0x16 build/mighty_one-2560/MightyBoard/Motherboard/EepromMap.o
                0x000084ee                _ZN6eeprom11isFirstTimeEv
 .text._ZN6eeprom30storeToolheadToleranceDefaultsEv
                0x00008504       0x4e build/mighty_one-2560/MightyBoard/Motherboard/EepromMap.o
                0x00008504                _ZN6eeprom30storeToolheadToleranceDefaultsEv
 .text._ZN6eeprom12getBuildTimeEPjPh
                0x00008552       0x34 build/mighty_one-2560/MightyBoard/Motherboard/EepromMap.o
                0x00008552                _ZN6eeprom12getBuildTimeEPjPh
 .text._ZN6eeprom12setBuildTimeEjh
                0x00008586       0x1e build/mighty_one-2560/MightyBoard/Motherboard/EepromMap.o
                0x00008586                _ZN6eeprom12setBuildTimeEjh
 .text._ZN6eeprom15updateBuildTimeEhh
                0x000085a4       0x5e build/mighty_one-2560/MightyBoard/Motherboard/EepromMap.o
                0x000085a4                _ZN6eeprom15updateBuildTimeEhh
 .text._ZN6eeprom15fullResetEEPROMEv
                0x00008602       0x62 build/mighty_one-2560/MightyBoard/Motherboard/EepromMap.o
                0x00008602                _ZN6eeprom15fullResetEEPROMEv
 .text._ZN6eeprom10heatLightsEv
                0x00008664       0x24 build/mighty_one-2560/MightyBoard/Motherboard/EepromMap.o
                0x00008664                _ZN6eeprom10heatLightsEv
 .text.startup._GLOBAL__sub_I__ZN6eeprom20setDefaultCoolingFanEj
                0x00008688       0x10 build/mighty_one-2560/MightyBoard/Motherboard/EepromMap.o
 .text._ZN4host20processCommandPacketERK8InPacketR9OutPacket
                0x00008698       0x9a build/mighty_one-2560/MightyBoard/Motherboard/Host.o
                0x00008698                _ZN4host20processCommandPacketERK8InPacketR9OutPacket
 .text._ZN4host12heatShutdownEv
                0x00008732        0xe build/mighty_one-2560/MightyBoard/Motherboard/Host.o
                0x00008732                _ZN4host12heatShutdownEv
 .text._ZN4host17handleGetPositionERK8InPacketR9OutPacket
                0x00008740       0xaa build/mighty_one-2560/MightyBoard/Motherboard/Host.o
                0x00008740                _ZN4host17handleGetPositionERK8InPacketR9OutPacket
 .text._ZN4host20handleGetPositionExtERK8InPacketR9OutPacket
                0x000087ea       0xe4 build/mighty_one-2560/MightyBoard/Motherboard/Host.o
                0x000087ea                _ZN4host20handleGetPositionExtERK8InPacketR9OutPacket
 .text._ZN4host18handleNextFilenameERK8InPacketR9OutPacket
                0x000088ce       0xbe build/mighty_one-2560/MightyBoard/Motherboard/Host.o
                0x000088ce                _ZN4host18handleNextFilenameERK8InPacketR9OutPacket
 .text._ZN4host16handleReadEepromERK8InPacketR9OutPacket
                0x0000898c       0xb6 build/mighty_one-2560/MightyBoard/Motherboard/Host.o
                0x0000898c                _ZN4host16handleReadEepromERK8InPacketR9OutPacket
 .text._ZN4host17handleWriteEepromERK8InPacketR9OutPacket
                0x00008a42      0x102 build/mighty_one-2560/MightyBoard/Motherboard/Host.o
                0x00008a42                _ZN4host17handleWriteEepromERK8InPacketR9OutPacket
 .text._ZN4host12getBuildNameEv
                0x00008b44        0x6 build/mighty_one-2560/MightyBoard/Motherboard/Host.o
                0x00008b44                _ZN4host12getBuildNameEv
 .text._ZN4host12getHostStateEv
                0x00008b4a        0x6 build/mighty_one-2560/MightyBoard/Motherboard/Host.o
                0x00008b4a                _ZN4host12getHostStateEv
 .text._ZN4host13getBuildStateEv
                0x00008b50        0x6 build/mighty_one-2560/MightyBoard/Motherboard/Host.o
                0x00008b50                _ZN4host13getBuildStateEv
 .text._ZN4host16startBuildFromSDEPch
                0x00008b56       0x6e build/mighty_one-2560/MightyBoard/Motherboard/Host.o
                0x00008b56                _ZN4host16startBuildFromSDEPch
 .text._ZN4host17startOnboardBuildEh
                0x00008bc4       0x26 build/mighty_one-2560/MightyBoard/Motherboard/Host.o
                0x00008bc4                _ZN4host17startOnboardBuildEh
 .text._ZN4host10pauseBuildEbb
                0x00008bea       0x60 build/mighty_one-2560/MightyBoard/Motherboard/Host.o
                0x00008bea                _ZN4host10pauseBuildEbb
 .text._ZN4host14startPrintTimeEv
                0x00008c4a       0x16 build/mighty_one-2560/MightyBoard/Motherboard/Host.o
                0x00008c4a                _ZN4host14startPrintTimeEv
 .text._ZN4host28handleBuildStartNotificationER19CircularBufferTemplIhE
                0x00008c60       0xf2 build/mighty_one-2560/MightyBoard/Motherboard/Host.o
                0x00008c60                _ZN4host28handleBuildStartNotificationER19CircularBufferTemplIhE
 .text._ZN4host15managePrintTimeEv
                0x00008d52       0x28 build/mighty_one-2560/MightyBoard/Motherboard/Host.o
                0x00008d52                _ZN4host15managePrintTimeEv
 .text._ZN4host12getPrintTimeERhS0_
                0x00008d7a       0x40 build/mighty_one-2560/MightyBoard/Motherboard/Host.o
                0x00008d7a                _ZN4host12getPrintTimeERhS0_
 .text._ZN4host13stopPrintTimeEv
                0x00008dba       0x5c build/mighty_one-2560/MightyBoard/Motherboard/Host.o
                0x00008dba                _ZN4host13stopPrintTimeEv
 .text._ZN4host12stopBuildNowEv
                0x00008e16       0x48 build/mighty_one-2560/MightyBoard/Motherboard/Host.o
                0x00008e16                _ZN4host12stopBuildNowEv
 .text._ZN4host9stopBuildEv
                0x00008e5e       0x3c build/mighty_one-2560/MightyBoard/Motherboard/Host.o
                0x00008e5e                _ZN4host9stopBuildEv
 .text._ZN4host27handleBuildStopNotificationEh
                0x00008e9a       0x52 build/mighty_one-2560/MightyBoard/Motherboard/Host.o
                0x00008e9a                _ZN4host27handleBuildStopNotificationEh
 .text._ZN4host15getPrintSecondsEv
                0x00008eec       0x60 build/mighty_one-2560/MightyBoard/Motherboard/Host.o
                0x00008eec                _ZN4host15getPrintSecondsEv
 .text._ZN4host26processExtruderQueryPacketERK8InPacketR9OutPacket
                0x00008f4c      0x27e build/mighty_one-2560/MightyBoard/Motherboard/Host.o
                0x00008f4c                _ZN4host26processExtruderQueryPacketERK8InPacketR9OutPacket
 .text._ZN4host18processQueryPacketERK8InPacketR9OutPacket
                0x000091ca      0x2a2 build/mighty_one-2560/MightyBoard/Motherboard/Host.o
                0x000091ca                _ZN4host18processQueryPacketERK8InPacketR9OutPacket
 .text._ZN4host12runHostSliceEv
                0x0000946c      0x20a build/mighty_one-2560/MightyBoard/Motherboard/Host.o
                0x0000946c                _ZN4host12runHostSliceEv
 .text.startup._GLOBAL__sub_I__ZN4host17packet_in_timeoutE
                0x00009676       0x30 build/mighty_one-2560/MightyBoard/Motherboard/Host.o
 .text._Z5resetb
                0x000096a6       0x70 build/mighty_one-2560/MightyBoard/Motherboard/Main.o
                0x000096a6                _Z5resetb
 .text.startup.main
                0x00009716       0x2c build/mighty_one-2560/MightyBoard/Motherboard/Main.o
                0x00009716                main
 .text.startup._GLOBAL__sub_I__Z10StackPaintv
                0x00009742       0x10 build/mighty_one-2560/MightyBoard/Motherboard/Main.o
 .text._ZN27BuildPlatformHeatingElement17setHeatingElementEh
                0x00009752       0x4c build/mighty_one-2560/MightyBoard/Motherboard/Motherboard.o
                0x00009752                _ZN27BuildPlatformHeatingElement17setHeatingElementEh
 .text._ZN11MotherboardC2Ev
                0x0000979e      0x230 build/mighty_one-2560/MightyBoard/Motherboard/Motherboard.o
                0x0000979e                _ZN11MotherboardC2Ev
                0x0000979e                _ZN11MotherboardC1Ev
 .text._ZN11Motherboard22setupAccelStepperTimerEv
                0x000099ce       0x22 build/mighty_one-2560/MightyBoard/Motherboard/Motherboard.o
                0x000099ce                _ZN11Motherboard22setupAccelStepperTimerEv
 .text._ZN11Motherboard10initClocksEv
                0x000099f0       0x9c build/mighty_one-2560/MightyBoard/Motherboard/Motherboard.o
                0x000099f0                _ZN11Motherboard10initClocksEv
 .text._ZN11Motherboard4initEv
                0x00009a8c      0x122 build/mighty_one-2560/MightyBoard/Motherboard/Motherboard.o
                0x00009a8c                _ZN11Motherboard4initEv
 .text._ZN11Motherboard16getCurrentMicrosEv
                0x00009bae       0x24 build/mighty_one-2560/MightyBoard/Motherboard/Motherboard.o
                0x00009bae                _ZN11Motherboard16getCurrentMicrosEv
 .text._ZN11Motherboard18doStepperInterruptEv
                0x00009bd2       0x5c build/mighty_one-2560/MightyBoard/Motherboard/Motherboard.o
                0x00009bd2                _ZN11Motherboard18doStepperInterruptEv
 .text._ZN11Motherboard13HeatingAlertsEv
                0x00009c2e      0x226 build/mighty_one-2560/MightyBoard/Motherboard/Motherboard.o
                0x00009c2e                _ZN11Motherboard13HeatingAlertsEv
 .text._ZN11Motherboard10heaterFailE14HeaterFailModeh
                0x00009e54       0x26 build/mighty_one-2560/MightyBoard/Motherboard/Motherboard.o
                0x00009e54                _ZN11Motherboard10heaterFailE14HeaterFailModeh
 .text._ZN11Motherboard21resetUserInputTimeoutEv
                0x00009e7a       0x12 build/mighty_one-2560/MightyBoard/Motherboard/Motherboard.o
                0x00009e7a                _ZN11Motherboard21resetUserInputTimeoutEv
 .text.__vector_32
                0x00009e8c       0x54 build/mighty_one-2560/MightyBoard/Motherboard/Motherboard.o
                0x00009e8c                __vector_32
 .text._ZN11Motherboard14interfaceBlinkEhh
                0x00009ee0       0x2e build/mighty_one-2560/MightyBoard/Motherboard/Motherboard.o
                0x00009ee0                _ZN11Motherboard14interfaceBlinkEhh
 .text._ZN11Motherboard15startButtonWaitEv
                0x00009f0e       0x28 build/mighty_one-2560/MightyBoard/Motherboard/Motherboard.o
                0x00009f0e                _ZN11Motherboard15startButtonWaitEv
 .text._ZN11Motherboard13errorResponseEPKhS1_bb
                0x00009f36       0x2c build/mighty_one-2560/MightyBoard/Motherboard/Motherboard.o
                0x00009f36                _ZN11Motherboard13errorResponseEPKhS1_bb
 .text._ZN11Motherboard13errorResponseEPKhbb
                0x00009f62       0x14 build/mighty_one-2560/MightyBoard/Motherboard/Motherboard.o
                0x00009f62                _ZN11Motherboard13errorResponseEPKhbb
 .text.__vector_13
                0x00009f76       0x50 build/mighty_one-2560/MightyBoard/Motherboard/Motherboard.o
                0x00009f76                __vector_13
 .text.__vector_47
                0x00009fc6      0x134 build/mighty_one-2560/MightyBoard/Motherboard/Motherboard.o
                0x00009fc6                __vector_47
 .text._ZN11Motherboard8setExtraEb
                0x0000a0fa       0x6e build/mighty_one-2560/MightyBoard/Motherboard/Motherboard.o
                0x0000a0fa                _ZN11Motherboard8setExtraEb
 .text._ZN11Motherboard10heatersOffEb
                0x0000a168       0x4e build/mighty_one-2560/MightyBoard/Motherboard/Motherboard.o
                0x0000a168                _ZN11Motherboard10heatersOffEb
 .text._ZN11Motherboard19runMotherboardSliceEv
                0x0000a1b6      0x308 build/mighty_one-2560/MightyBoard/Motherboard/Motherboard.o
                0x0000a1b6                _ZN11Motherboard19runMotherboardSliceEv
 .text._ZN11Motherboard5resetEb
                0x0000a4be      0x192 build/mighty_one-2560/MightyBoard/Motherboard/Motherboard.o
                0x0000a4be                _ZN11Motherboard5resetEb
 .text._ZN11Motherboard16interfaceBlinkOnEv
                0x0000a650        0xe build/mighty_one-2560/MightyBoard/Motherboard/Motherboard.o
                0x0000a650                _ZN11Motherboard16interfaceBlinkOnEv
 .text._ZN11Motherboard17interfaceBlinkOffEv
                0x0000a65e        0xe build/mighty_one-2560/MightyBoard/Motherboard/Motherboard.o
                0x0000a65e                _ZN11Motherboard17interfaceBlinkOffEv
 .text._ZN11Motherboard12pauseHeatersEb
                0x0000a66c       0x1c build/mighty_one-2560/MightyBoard/Motherboard/Motherboard.o
                0x0000a66c                _ZN11Motherboard12pauseHeatersEb
 .text.startup._GLOBAL__sub_I_board_status
                0x0000a688       0x18 build/mighty_one-2560/MightyBoard/Motherboard/Motherboard.o
 .text._ZN5Piezo14shutdown_timerEv
                0x0000a6a0       0x10 build/mighty_one-2560/MightyBoard/Motherboard/Piezo.o
                0x0000a6a0                _ZN5Piezo14shutdown_timerEv
 .text._ZN5Piezo5resetEv
                0x0000a6b0       0x94 build/mighty_one-2560/MightyBoard/Motherboard/Piezo.o
                0x0000a6b0                _ZN5Piezo5resetEv
 .text._ZN5Piezo15processNextToneEv
                0x0000a744      0x148 build/mighty_one-2560/MightyBoard/Motherboard/Piezo.o
                0x0000a744                _ZN5Piezo15processNextToneEv
 .text._ZN5Piezo7setToneEjj
                0x0000a88c       0xa2 build/mighty_one-2560/MightyBoard/Motherboard/Piezo.o
                0x0000a88c                _ZN5Piezo7setToneEjj
 .text._ZN5Piezo9isPlayingEv
                0x0000a92e        0x6 build/mighty_one-2560/MightyBoard/Motherboard/Piezo.o
                0x0000a92e                _ZN5Piezo9isPlayingEv
 .text._ZN5Piezo13runPiezoSliceEv
                0x0000a934       0x22 build/mighty_one-2560/MightyBoard/Motherboard/Piezo.o
                0x0000a934                _ZN5Piezo13runPiezoSliceEv
 .text._ZN5Piezo8playTuneEh
                0x0000a956       0x74 build/mighty_one-2560/MightyBoard/Motherboard/Piezo.o
                0x0000a956                _ZN5Piezo8playTuneEh
 .text._ZN5Piezo9errorToneEh
                0x0000a9ca       0x3e build/mighty_one-2560/MightyBoard/Motherboard/Piezo.o
                0x0000a9ca                _ZN5Piezo9errorToneEh
 .text.startup._GLOBAL__sub_I__ZN5Piezo9tones_bufE
                0x0000aa08       0x48 build/mighty_one-2560/MightyBoard/Motherboard/Piezo.o
 .text._ZN5PointC2Ev
                0x0000aa50        0x2 build/mighty_one-2560/MightyBoard/Motherboard/Point.o
                0x0000aa50                _ZN5PointC2Ev
                0x0000aa50                _ZN5PointC1Ev
 .text._ZN5PointC2Elllll
                0x0000aa52       0x68 build/mighty_one-2560/MightyBoard/Motherboard/Point.o
                0x0000aa52                _ZN5PointC1Elllll
                0x0000aa52                _ZN5PointC2Elllll
 .text._ZNK5PointixEj
                0x0000aaba       0x10 build/mighty_one-2560/MightyBoard/Motherboard/Point.o
                0x0000aaba                _ZNK5PointixEj
 .text._ZN5PointixEj
                0x0000aaca       0x10 build/mighty_one-2560/MightyBoard/Motherboard/Point.o
                0x0000aaca                _ZN5PointixEj
 .text._ZN6sdcardL10finishFileEv
                0x0000aada       0x1e build/mighty_one-2560/MightyBoard/Motherboard/SDCard.o
 .text._ZN6sdcardL16changeWorkingDirEP20fat_dir_entry_struct
                0x0000aaf8       0x92 build/mighty_one-2560/MightyBoard/Motherboard/SDCard.o
 .text._ZN6sdcardL13findFileInDirEPKcP20fat_dir_entry_struct.constprop.2
                0x0000ab8a       0x46 build/mighty_one-2560/MightyBoard/Motherboard/SDCard.o
 .text._ZN6sdcardL8openFileEPKc
                0x0000abd0       0x74 build/mighty_one-2560/MightyBoard/Motherboard/SDCard.o
 .text._ZN6sdcard15changeDirectoryEPKc
                0x0000ac44       0x56 build/mighty_one-2560/MightyBoard/Motherboard/SDCard.o
                0x0000ac44                _ZN6sdcard15changeDirectoryEPKc
 .text._ZN6sdcard9isPlayingEv
                0x0000ac9a        0x6 build/mighty_one-2560/MightyBoard/Motherboard/SDCard.o
                0x0000ac9a                _ZN6sdcard9isPlayingEv
 .text._ZN6sdcard13finishCaptureEv
                0x0000aca0       0x22 build/mighty_one-2560/MightyBoard/Motherboard/SDCard.o
                0x0000aca0                _ZN6sdcard13finishCaptureEv
 .text._ZN6sdcard13fetchNextByteEv
                0x0000acc2       0x46 build/mighty_one-2560/MightyBoard/Motherboard/SDCard.o
                0x0000acc2                _ZN6sdcard13fetchNextByteEv
 .text._ZN6sdcard15playbackHasNextEv
                0x0000ad08        0x6 build/mighty_one-2560/MightyBoard/Motherboard/SDCard.o
                0x0000ad08                _ZN6sdcard15playbackHasNextEv
 .text._ZN6sdcard12playbackNextEv
                0x0000ad0e       0x1e build/mighty_one-2560/MightyBoard/Motherboard/SDCard.o
                0x0000ad0e                _ZN6sdcard12playbackNextEv
 .text._ZN6sdcard14finishPlaybackEv
                0x0000ad2c       0x16 build/mighty_one-2560/MightyBoard/Motherboard/SDCard.o
                0x0000ad2c                _ZN6sdcard14finishPlaybackEv
 .text._ZN6sdcard5resetEv
                0x0000ad42       0x60 build/mighty_one-2560/MightyBoard/Motherboard/SDCard.o
                0x0000ad42                _ZN6sdcard5resetEv
 .text._ZN6sdcardL8initCardEv
                0x0000ada2      0x112 build/mighty_one-2560/MightyBoard/Motherboard/SDCard.o
 .text._ZN6sdcard13startPlaybackEPc
                0x0000aeb4       0x52 build/mighty_one-2560/MightyBoard/Motherboard/SDCard.o
                0x0000aeb4                _ZN6sdcard13startPlaybackEPc
 .text._ZN6sdcard18directoryNextEntryEPchPhPb
                0x0000af06       0xea build/mighty_one-2560/MightyBoard/Motherboard/SDCard.o
                0x0000af06                _ZN6sdcard18directoryNextEntryEPchPhPb
 .text._ZN6sdcard14directoryResetEv
                0x0000aff0       0x20 build/mighty_one-2560/MightyBoard/Motherboard/SDCard.o
                0x0000aff0                _ZN6sdcard14directoryResetEv
 .text.startup._GLOBAL__sub_I__ZN6sdcard10mustReinitE
                0x0000b010       0x10 build/mighty_one-2560/MightyBoard/Motherboard/SDCard.o
 .text._ZL13skew_constantv
                0x0000b020      0x100 build/mighty_one-2560/MightyBoard/Motherboard/SkewTilt.o
 .text._Z4skewPKl
                0x0000b120       0xe0 build/mighty_one-2560/MightyBoard/Motherboard/SkewTilt.o
                0x0000b120                _Z4skewPKl
 .text._Z11skew_updatePKl
                0x0000b200       0x98 build/mighty_one-2560/MightyBoard/Motherboard/SkewTilt.o
                0x0000b200                _Z11skew_updatePKl
 .text._Z11skew_deinitv
                0x0000b298       0x6e build/mighty_one-2560/MightyBoard/Motherboard/SkewTilt.o
                0x0000b298                _Z11skew_deinitv
 .text._Z9skew_initllPKlS0_S0_
                0x0000b306      0x412 build/mighty_one-2560/MightyBoard/Motherboard/SkewTilt.o
                0x0000b306                _Z9skew_initllPKlS0_S0_
 .text._Z11skew_statusv
                0x0000b718       0x12 build/mighty_one-2560/MightyBoard/Motherboard/SkewTilt.o
                0x0000b718                _Z11skew_statusv
 .text._ZN14SoftI2cManagerC2Ev
                0x0000b72a      0x10e build/mighty_one-2560/MightyBoard/Motherboard/SoftI2cManager.o
                0x0000b72a                _ZN14SoftI2cManagerC2Ev
                0x0000b72a                _ZN14SoftI2cManagerC1Ev
 .text._ZN14SoftI2cManager4initEv
                0x0000b838       0x60 build/mighty_one-2560/MightyBoard/Motherboard/SoftI2cManager.o
                0x0000b838                _ZN14SoftI2cManager4initEv
 .text._ZN14SoftI2cManager4readEbRK3Pin
                0x0000b898       0xa0 build/mighty_one-2560/MightyBoard/Motherboard/SoftI2cManager.o
                0x0000b898                _ZN14SoftI2cManager4readEbRK3Pin
 .text._ZN14SoftI2cManager4stopEv
                0x0000b938       0x54 build/mighty_one-2560/MightyBoard/Motherboard/SoftI2cManager.o
                0x0000b938                _ZN14SoftI2cManager4stopEv
 .text._ZN14SoftI2cManager5writeEhRK3Pin
                0x0000b98c       0xa8 build/mighty_one-2560/MightyBoard/Motherboard/SoftI2cManager.o
                0x0000b98c                _ZN14SoftI2cManager5writeEhRK3Pin
 .text._ZN14SoftI2cManager5startEhRK3Pin
                0x0000ba34       0x62 build/mighty_one-2560/MightyBoard/Motherboard/SoftI2cManager.o
                0x0000ba34                _ZN14SoftI2cManager5startEhRK3Pin
 .text.startup._GLOBAL__sub_I__ZN14SoftI2cManager10i2cManagerE
                0x0000ba96       0x18 build/mighty_one-2560/MightyBoard/Motherboard/SoftI2cManager.o
 .text._Z12st_interruptv
                0x0000baae     0x2218 build/mighty_one-2560/MightyBoard/Motherboard/StepperAccel.o
                0x0000baae                _Z12st_interruptv
 .text._Z21st_extruder_interruptv
                0x0000dcc6      0x274 build/mighty_one-2560/MightyBoard/Motherboard/StepperAccel.o
                0x0000dcc6                _Z21st_extruder_interruptv
 .text._Z7st_initv
                0x0000df3a      0x196 build/mighty_one-2560/MightyBoard/Motherboard/StepperAccel.o
                0x0000df3a                _Z7st_initv
 .text._Z8st_emptyv
                0x0000e0d0       0x10 build/mighty_one-2560/MightyBoard/Motherboard/StepperAccel.o
                0x0000e0d0                _Z8st_emptyv
 .text._Z15st_set_positionRKlS0_S0_S0_S0_
                0x0000e0e0       0xaa build/mighty_one-2560/MightyBoard/Motherboard/StepperAccel.o
                0x0000e0e0                _Z15st_set_positionRKlS0_S0_S0_S0_
 .text._Z15st_get_positionPlS_S_S_S_Ph
                0x0000e18a       0xb6 build/mighty_one-2560/MightyBoard/Motherboard/StepperAccel.o
                0x0000e18a                _Z15st_get_positionPlS_S_S_S_Ph
 .text._Z9quickStopv
                0x0000e240       0xf0 build/mighty_one-2560/MightyBoard/Motherboard/StepperAccel.o
                0x0000e240                _Z9quickStopv
 .text._Z17st_deprime_enableb
                0x0000e330       0x10 build/mighty_one-2560/MightyBoard/Motherboard/StepperAccel.o
                0x0000e330                _Z17st_deprime_enableb
 .text.startup._GLOBAL__sub_I_current_block
                0x0000e340       0x10 build/mighty_one-2560/MightyBoard/Motherboard/StepperAccel.o
 .text._ZL6isqrt1i
                0x0000e350       0x28 build/mighty_one-2560/MightyBoard/Motherboard/StepperAccelPlanner.o
 .text._Z29calculate_trapezoid_for_blockP7block_tll
                0x0000e378      0x630 build/mighty_one-2560/MightyBoard/Motherboard/StepperAccelPlanner.o
                0x0000e378                _Z29calculate_trapezoid_for_blockP7block_tll
 .text._Z27planner_reverse_pass_kernelP7block_tS0_
                0x0000e9a8      0x3ce build/mighty_one-2560/MightyBoard/Motherboard/StepperAccelPlanner.o
                0x0000e9a8                _Z27planner_reverse_pass_kernelP7block_tS0_
 .text._Z20planner_reverse_passv
                0x0000ed76       0x5e build/mighty_one-2560/MightyBoard/Motherboard/StepperAccelPlanner.o
                0x0000ed76                _Z20planner_reverse_passv
 .text._Z27planner_forward_pass_kernelP7block_tS0_
                0x0000edd4      0x3f6 build/mighty_one-2560/MightyBoard/Motherboard/StepperAccelPlanner.o
                0x0000edd4                _Z27planner_forward_pass_kernelP7block_tS0_
 .text._Z20planner_forward_passv
                0x0000f1ca       0x54 build/mighty_one-2560/MightyBoard/Motherboard/StepperAccelPlanner.o
                0x0000f1ca                _Z20planner_forward_passv
 .text._Z30planner_recalculate_trapezoidsv
                0x0000f21e      0x13a build/mighty_one-2560/MightyBoard/Motherboard/StepperAccelPlanner.o
                0x0000f21e                _Z30planner_recalculate_trapezoidsv
 .text._Z19planner_recalculatev
                0x0000f358        0xe build/mighty_one-2560/MightyBoard/Motherboard/StepperAccelPlanner.o
                0x0000f358                _Z19planner_recalculatev
 .text._Z9plan_initllb
                0x0000f366       0xec build/mighty_one-2560/MightyBoard/Motherboard/StepperAccelPlanner.o
                0x0000f366                _Z9plan_initllb
 .text._Z16plan_buffer_linelRKmRKhbh
                0x0000f452     0x1646 build/mighty_one-2560/MightyBoard/Motherboard/StepperAccelPlanner.o
                0x0000f452                _Z16plan_buffer_linelRKmRKhbh
 .text._Z17plan_set_positionRKlS0_S0_S0_S0_
                0x00010a98       0xc4 build/mighty_one-2560/MightyBoard/Motherboard/StepperAccelPlanner.o
                0x00010a98                _Z17plan_set_positionRKlS0_S0_S0_S0_
 .text.startup._GLOBAL__sub_I_max_acceleration_units_per_sq_second
                0x00010b5c       0x10 build/mighty_one-2560/MightyBoard/Motherboard/StepperAccelPlanner.o
 .text._Z15stepperAxisInitb
                0x00010b6c      0x588 build/mighty_one-2560/MightyBoard/Motherboard/StepperAxis.o
                0x00010b6c                _Z15stepperAxisInitb
 .text._Z21stepperAxisStepsPerMMh
                0x000110f4       0x3c build/mighty_one-2560/MightyBoard/Motherboard/StepperAxis.o
                0x000110f4                _Z21stepperAxisStepsPerMMh
 .text._Z20stepperAxisStepsToMMlh
                0x00011130       0x5a build/mighty_one-2560/MightyBoard/Motherboard/StepperAxis.o
                0x00011130                _Z20stepperAxisStepsToMMlh
 .text._Z20stepperAxisMMToStepsfh
                0x0001118a       0xc0 build/mighty_one-2560/MightyBoard/Motherboard/StepperAxis.o
                0x0001118a                _Z20stepperAxisMMToStepsfh
 .text.startup._GLOBAL__sub_I_stepperAxisPorts
                0x0001124a       0x10 build/mighty_one-2560/MightyBoard/Motherboard/StepperAxis.o
 .text._ZN8steppers8initPotsEv
                0x0001125a       0x38 build/mighty_one-2560/MightyBoard/Motherboard/Steppers.o
                0x0001125a                _ZN8steppers8initPotsEv
 .text._ZN8steppers9isRunningEv
                0x00011292       0x12 build/mighty_one-2560/MightyBoard/Motherboard/Steppers.o
                0x00011292                _ZN8steppers9isRunningEv
 .text._ZN8steppers20loadToleranceOffsetsEv
                0x000112a4      0x16e build/mighty_one-2560/MightyBoard/Motherboard/Steppers.o
                0x000112a4                _ZN8steppers20loadToleranceOffsetsEv
 .text._ZN8steppers4initEv
                0x00011412       0x3c build/mighty_one-2560/MightyBoard/Motherboard/Steppers.o
                0x00011412                _ZN8steppers4initEv
 .text._ZN8steppers13removeOffsetsERK5Point
                0x0001144e       0x86 build/mighty_one-2560/MightyBoard/Motherboard/Steppers.o
                0x0001144e                _ZN8steppers13removeOffsetsERK5Point
 .text._ZN8steppers14definePositionERK5Pointb
                0x000114d4      0x162 build/mighty_one-2560/MightyBoard/Motherboard/Steppers.o
                0x000114d4                _ZN8steppers14definePositionERK5Pointb
 .text._ZN8steppers18getPlannerPositionEv
                0x00011636      0x17e build/mighty_one-2560/MightyBoard/Motherboard/Steppers.o
                0x00011636                _ZN8steppers18getPlannerPositionEv
 .text._ZN8steppers18getStepperPositionEPh
                0x000117b4      0x162 build/mighty_one-2560/MightyBoard/Motherboard/Steppers.o
                0x000117b4                _ZN8steppers18getStepperPositionEPh
 .text._ZN8steppers12setTargetNewERK5Pointllh
                0x00011916      0x32c build/mighty_one-2560/MightyBoard/Motherboard/Steppers.o
                0x00011916                _ZN8steppers12setTargetNewERK5Pointllh
 .text._ZN8steppers15setTargetNewExtERK5Pointlhfi
                0x00011c42      0x4c2 build/mighty_one-2560/MightyBoard/Motherboard/Steppers.o
                0x00011c42                _ZN8steppers15setTargetNewExtERK5Pointlhfi
 .text._ZN8steppers11startHomingEbhm
                0x00012104      0x13e build/mighty_one-2560/MightyBoard/Motherboard/Steppers.o
                0x00012104                _ZN8steppers11startHomingEbhm
 .text._ZN8steppers10enableAxisEhb
                0x00012242       0x2c build/mighty_one-2560/MightyBoard/Motherboard/Steppers.o
                0x00012242                _ZN8steppers10enableAxisEhb
 .text._ZN8steppers10enableAxesEhb
                0x0001226e       0x5a build/mighty_one-2560/MightyBoard/Motherboard/Steppers.o
                0x0001226e                _ZN8steppers10enableAxesEhb
 .text._ZN8steppers14allAxesEnabledEv
                0x000122c8        0x6 build/mighty_one-2560/MightyBoard/Motherboard/Steppers.o
                0x000122c8                _ZN8steppers14allAxesEnabledEv
 .text._ZN8steppers15setAxisPotValueEhh
                0x000122ce       0x24 build/mighty_one-2560/MightyBoard/Motherboard/Steppers.o
                0x000122ce                _ZN8steppers15setAxisPotValueEhh
 .text._ZN8steppers15getAxisPotValueEh
                0x000122f2       0x28 build/mighty_one-2560/MightyBoard/Motherboard/Steppers.o
                0x000122f2                _ZN8steppers15getAxisPotValueEh
 .text._ZN8steppers12resetAxisPotEh
                0x0001231a       0x24 build/mighty_one-2560/MightyBoard/Motherboard/Steppers.o
                0x0001231a                _ZN8steppers12resetAxisPotEh
 .text._ZN8steppers20setSegmentAccelStateEb
                0x0001233e        0x6 build/mighty_one-2560/MightyBoard/Motherboard/Steppers.o
                0x0001233e                _ZN8steppers20setSegmentAccelStateEb
 .text._ZN8steppers15changeToolIndexEh
                0x00012344       0x1e build/mighty_one-2560/MightyBoard/Motherboard/Steppers.o
                0x00012344                _ZN8steppers15changeToolIndexEh
 .text._ZN8steppers16getEndstopStatusEv
                0x00012362      0x16a build/mighty_one-2560/MightyBoard/Motherboard/Steppers.o
                0x00012362                _ZN8steppers16getEndstopStatusEv
 .text._ZN8steppers13deprimeEnableEb
                0x000124cc       0x10 build/mighty_one-2560/MightyBoard/Motherboard/Steppers.o
                0x000124cc                _ZN8steppers13deprimeEnableEb
 .text._ZN8steppers5abortEv
                0x000124dc       0x22 build/mighty_one-2560/MightyBoard/Motherboard/Steppers.o
                0x000124dc                _ZN8steppers5abortEv
 .text._ZN8steppers5resetEv
                0x000124fe      0x57e build/mighty_one-2560/MightyBoard/Motherboard/Steppers.o
                0x000124fe                _ZN8steppers5resetEv
 .text._ZN8steppers16runSteppersSliceEv
                0x00012a7c        0x2 build/mighty_one-2560/MightyBoard/Motherboard/Steppers.o
                0x00012a7c                _ZN8steppers16runSteppersSliceEv
 .text._ZN8steppers18doStepperInterruptEv
                0x00012a7e       0x6a build/mighty_one-2560/MightyBoard/Motherboard/Steppers.o
                0x00012a7e                _ZN8steppers18doStepperInterruptEv
 .text._ZN8steppers19doExtruderInterruptEv
                0x00012ae8        0x6 build/mighty_one-2560/MightyBoard/Motherboard/Steppers.o
                0x00012ae8                _ZN8steppers19doExtruderInterruptEv
 .text.startup._GLOBAL__sub_I__ZN8steppers10alterSpeedE
                0x00012aee      0x12c build/mighty_one-2560/MightyBoard/Motherboard/Steppers.o
 .text._Z14TWI_write_datahPhh
                0x00012c1a       0x7a build/mighty_one-2560/MightyBoard/Motherboard/TWI.o
                0x00012c1a                _Z14TWI_write_datahPhh
 .text._Z8TWI_initv
                0x00012c94        0xc build/mighty_one-2560/MightyBoard/Motherboard/TWI.o
                0x00012c94                _Z8TWI_initv
 .text._ZN7utility9isPlayingEv
                0x00012ca0        0x6 build/mighty_one-2560/MightyBoard/Motherboard/UtilityScripts.o
                0x00012ca0                _ZN7utility9isPlayingEv
 .text._ZN7utility5resetEv
                0x00012ca6       0x16 build/mighty_one-2560/MightyBoard/Motherboard/UtilityScripts.o
                0x00012ca6                _ZN7utility5resetEv
 .text._ZN7utility15playbackHasNextEv
                0x00012cbc       0x1c build/mighty_one-2560/MightyBoard/Motherboard/UtilityScripts.o
                0x00012cbc                _ZN7utility15playbackHasNextEv
 .text._ZN7utility12playbackNextEv
                0x00012cd8       0x34 build/mighty_one-2560/MightyBoard/Motherboard/UtilityScripts.o
                0x00012cd8                _ZN7utility12playbackNextEv
 .text._ZN7utility13startPlaybackEh
                0x00012d0c       0x42 build/mighty_one-2560/MightyBoard/Motherboard/UtilityScripts.o
                0x00012d0c                _ZN7utility13startPlaybackEh
 .text._ZN7utility14finishPlaybackEv
                0x00012d4e        0x6 build/mighty_one-2560/MightyBoard/Motherboard/UtilityScripts.o
                0x00012d4e                _ZN7utility14finishPlaybackEv
 .text.startup._GLOBAL__sub_I__ZN7utility10is_playingE
                0x00012d54       0x10 build/mighty_one-2560/MightyBoard/Motherboard/UtilityScripts.o
 .text._ZN11ButtonArray4initEv
                0x00012d64       0x32 build/mighty_one-2560/MightyBoard/Motherboard/boards/mighty_one/ButtonArray.o
                0x00012d64                _ZN11ButtonArray4initEv
 .text._ZN11ButtonArray9getButtonERNS_10ButtonNameE
                0x00012d96       0x16 build/mighty_one-2560/MightyBoard/Motherboard/boards/mighty_one/ButtonArray.o
                0x00012d96                _ZN11ButtonArray9getButtonERNS_10ButtonNameE
 .text._ZN11ButtonArray16clearButtonPressEv
                0x00012dac        0x8 build/mighty_one-2560/MightyBoard/Motherboard/boards/mighty_one/ButtonArray.o
                0x00012dac                _ZN11ButtonArray16clearButtonPressEv
 .text._ZN11ButtonArray15isButtonPressedENS_10ButtonNameE
                0x00012db4       0x18 build/mighty_one-2560/MightyBoard/Motherboard/boards/mighty_one/ButtonArray.o
                0x00012db4                _ZN11ButtonArray15isButtonPressedENS_10ButtonNameE
 .text._ZN11ButtonArray11scanButtonsEv
                0x00012dcc       0xda build/mighty_one-2560/MightyBoard/Motherboard/boards/mighty_one/ButtonArray.o
                0x00012dcc                _ZN11ButtonArray11scanButtonsEv
 .text._ZN11ButtonArray14setButtonDelayEm
                0x00012ea6       0x12 build/mighty_one-2560/MightyBoard/Motherboard/boards/mighty_one/ButtonArray.o
                0x00012ea6                _ZN11ButtonArray14setButtonDelayEm
 .text.startup._GLOBAL__sub_I__ZN11ButtonArray4initEv
                0x00012eb8       0x10 build/mighty_one-2560/MightyBoard/Motherboard/boards/mighty_one/ButtonArray.o
 .text._ZN6Cutoff11resetCutoffEv
                0x00012ec8       0x9c build/mighty_one-2560/MightyBoard/Motherboard/boards/mighty_one/Cutoff.o
                0x00012ec8                _ZN6Cutoff11resetCutoffEv
 .text._ZN6Cutoff7disableEv
                0x00012f64       0x9c build/mighty_one-2560/MightyBoard/Motherboard/boards/mighty_one/Cutoff.o
                0x00012f64                _ZN6Cutoff7disableEv
 .text._ZN6Cutoff4initEv
                0x00013000       0xae build/mighty_one-2560/MightyBoard/Motherboard/boards/mighty_one/Cutoff.o
                0x00013000                _ZN6Cutoff4initEv
 .text.startup._GLOBAL__sub_I__ZN6Cutoff4initEv
                0x000130ae       0x10 build/mighty_one-2560/MightyBoard/Motherboard/boards/mighty_one/Cutoff.o
 .text._ZN13ExtruderBoardC2Eh3PinS0_hj
                0x000130be       0xc0 build/mighty_one-2560/MightyBoard/Motherboard/boards/mighty_one/ExtruderBoard.o
                0x000130be                _ZN13ExtruderBoardC1Eh3PinS0_hj
                0x000130be                _ZN13ExtruderBoardC2Eh3PinS0_hj
 .text._ZN13ExtruderBoard5resetEv
                0x0001317e       0x42 build/mighty_one-2560/MightyBoard/Motherboard/boards/mighty_one/ExtruderBoard.o
                0x0001317e                _ZN13ExtruderBoard5resetEv
 .text._ZN13ExtruderBoard16runExtruderSliceEv
                0x000131c0       0x1c build/mighty_one-2560/MightyBoard/Motherboard/boards/mighty_one/ExtruderBoard.o
                0x000131c0                _ZN13ExtruderBoard16runExtruderSliceEv
 .text._ZN13ExtruderBoard6setFanEh
                0x000131dc       0x14 build/mighty_one-2560/MightyBoard/Motherboard/boards/mighty_one/ExtruderBoard.o
                0x000131dc                _ZN13ExtruderBoard6setFanEh
 .text._Z9pwmEx2_Onb
                0x000131f0       0x18 build/mighty_one-2560/MightyBoard/Motherboard/boards/mighty_one/ExtruderBoard.o
                0x000131f0                _Z9pwmEx2_Onb
 .text._Z9pwmEx1_Onb
                0x00013208       0x18 build/mighty_one-2560/MightyBoard/Motherboard/boards/mighty_one/ExtruderBoard.o
                0x00013208                _Z9pwmEx1_Onb
 .text._ZN22ExtruderHeatingElement17setHeatingElementEh
                0x00013220       0xbc build/mighty_one-2560/MightyBoard/Motherboard/boards/mighty_one/ExtruderBoard.o
                0x00013220                _ZN22ExtruderHeatingElement17setHeatingElementEh
 .text.startup._GLOBAL__sub_I__ZN13ExtruderBoardC2Eh3PinS0_hj
                0x000132dc       0x10 build/mighty_one-2560/MightyBoard/Motherboard/boards/mighty_one/ExtruderBoard.o
 .text._ZN7RGB_LED12setBlinkRateEhhh
                0x000132ec       0x7e build/mighty_one-2560/MightyBoard/Motherboard/boards/mighty_one/RGB_LED.o
                0x000132ec                _ZN7RGB_LED12setBlinkRateEhhh
 .text._ZN7RGB_LED14toggleLEDNoPWMEbh
                0x0001336a       0x42 build/mighty_one-2560/MightyBoard/Motherboard/boards/mighty_one/RGB_LED.o
                0x0001336a                _ZN7RGB_LED14toggleLEDNoPWMEbh
 .text._ZN7RGB_LED13setBrightnessEhhh
                0x000133ac       0x94 build/mighty_one-2560/MightyBoard/Motherboard/boards/mighty_one/RGB_LED.o
                0x000133ac                _ZN7RGB_LED13setBrightnessEhhh
 .text._ZN7RGB_LED5clearEv
                0x00013440        0xc build/mighty_one-2560/MightyBoard/Motherboard/boards/mighty_one/RGB_LED.o
                0x00013440                _ZN7RGB_LED5clearEv
 .text._ZN7RGB_LED13errorSequenceEv
                0x0001344c       0x1a build/mighty_one-2560/MightyBoard/Motherboard/boards/mighty_one/RGB_LED.o
                0x0001344c                _ZN7RGB_LED13errorSequenceEv
 .text._ZN7RGB_LED8setColorEhhhb
                0x00013466      0x1be build/mighty_one-2560/MightyBoard/Motherboard/boards/mighty_one/RGB_LED.o
                0x00013466                _ZN7RGB_LED8setColorEhhhb
 .text._ZN7RGB_LED15setDefaultColorEv
                0x00013624      0x13a build/mighty_one-2560/MightyBoard/Motherboard/boards/mighty_one/RGB_LED.o
                0x00013624                _ZN7RGB_LED15setDefaultColorEv
 .text._ZN7RGB_LED4initEv
                0x0001375e        0xa build/mighty_one-2560/MightyBoard/Motherboard/boards/mighty_one/RGB_LED.o
                0x0001375e                _ZN7RGB_LED4initEv
 .text.startup._GLOBAL__sub_I__ZN7RGB_LED9LEDSelectE
                0x00013768       0x10 build/mighty_one-2560/MightyBoard/Motherboard/boards/mighty_one/RGB_LED.o
 .text._ZL20fat_get_next_clusterPK13fat_fs_structm
                0x00013778      0x304 build/mighty_one-2560/MightyBoard/Motherboard/lib_sd/fat.o
 .text._ZL18fat_cluster_offsetPK13fat_fs_structm
                0x00013a7c      0x152 build/mighty_one-2560/MightyBoard/Motherboard/lib_sd/fat.o
 .text._ZL27fat_dir_entry_read_callbackPhyPv
                0x00013bce      0x2b4 build/mighty_one-2560/MightyBoard/Motherboard/lib_sd/fat.o
 .text._ZL19fat_write_dir_entryPK13fat_fs_structP20fat_dir_entry_struct
                0x00013e82      0x3de build/mighty_one-2560/MightyBoard/Motherboard/lib_sd/fat.o
 .text.fat_open
                0x00014260      0x7c0 build/mighty_one-2560/MightyBoard/Motherboard/lib_sd/fat.o
                0x00014260                fat_open
 .text.fat_close
                0x00014a20        0xc build/mighty_one-2560/MightyBoard/Motherboard/lib_sd/fat.o
                0x00014a20                fat_close
 .text.fat_open_file
                0x00014a2c       0x98 build/mighty_one-2560/MightyBoard/Motherboard/lib_sd/fat.o
                0x00014a2c                fat_open_file
 .text.fat_close_file
                0x00014ac4       0x20 build/mighty_one-2560/MightyBoard/Motherboard/lib_sd/fat.o
                0x00014ac4                fat_close_file
 .text.fat_read_file
                0x00014ae4      0x5d0 build/mighty_one-2560/MightyBoard/Motherboard/lib_sd/fat.o
                0x00014ae4                fat_read_file
 .text.fat_open_dir
                0x000150b4       0x82 build/mighty_one-2560/MightyBoard/Motherboard/lib_sd/fat.o
                0x000150b4                fat_open_dir
 .text.fat_close_dir
                0x00015136        0xc build/mighty_one-2560/MightyBoard/Motherboard/lib_sd/fat.o
                0x00015136                fat_close_dir
 .text.fat_read_dir
                0x00015142      0x376 build/mighty_one-2560/MightyBoard/Motherboard/lib_sd/fat.o
                0x00015142                fat_read_dir
 .text.fat_get_dir_entry_of_path
                0x000154b8      0x116 build/mighty_one-2560/MightyBoard/Motherboard/lib_sd/fat.o
                0x000154b8                fat_get_dir_entry_of_path
 .text.fat_reset_dir
                0x000155ce       0x22 build/mighty_one-2560/MightyBoard/Motherboard/lib_sd/fat.o
                0x000155ce                fat_reset_dir
 .text.startup._GLOBAL__sub_I_fat_errno
                0x000155f0       0x10 build/mighty_one-2560/MightyBoard/Motherboard/lib_sd/fat.o
 .text.partition_open
                0x00015600      0x1c0 build/mighty_one-2560/MightyBoard/Motherboard/lib_sd/partition.o
                0x00015600                partition_open
 .text.partition_close
                0x000157c0       0x10 build/mighty_one-2560/MightyBoard/Motherboard/lib_sd/partition.o
                0x000157c0                partition_close
 .text.startup._GLOBAL__sub_I_partition_open
                0x000157d0       0x10 build/mighty_one-2560/MightyBoard/Motherboard/lib_sd/partition.o
 .text._Z7sd_crc7PKhh
                0x000157e0       0x34 build/mighty_one-2560/MightyBoard/Motherboard/lib_sd/sd_crc.o
                0x000157e0                _Z7sd_crc7PKhh
 .text._Z8sd_crc16PKhj
                0x00015814       0x34 build/mighty_one-2560/MightyBoard/Motherboard/lib_sd/sd_crc.o
                0x00015814                _Z8sd_crc16PKhj
 .text._ZL16sd_raw_send_byteh
                0x00015848       0x20 build/mighty_one-2560/MightyBoard/Motherboard/lib_sd/sd_raw.o
 .text._ZL15sd_raw_rec_bytev
                0x00015868       0x24 build/mighty_one-2560/MightyBoard/Motherboard/lib_sd/sd_raw.o
 .text._ZL19sd_raw_send_commandhm
                0x0001588c       0xce build/mighty_one-2560/MightyBoard/Motherboard/lib_sd/sd_raw.o
 .text.sd_raw_available
                0x0001595a       0x38 build/mighty_one-2560/MightyBoard/Motherboard/lib_sd/sd_raw.o
                0x0001595a                sd_raw_available
 .text.sd_raw_locked
                0x00015992       0x34 build/mighty_one-2560/MightyBoard/Motherboard/lib_sd/sd_raw.o
                0x00015992                sd_raw_locked
 .text.sd_raw_sync
                0x000159c6       0x5a build/mighty_one-2560/MightyBoard/Motherboard/lib_sd/sd_raw.o
                0x000159c6                sd_raw_sync
 .text.sd_raw_read
                0x00015a20      0x386 build/mighty_one-2560/MightyBoard/Motherboard/lib_sd/sd_raw.o
                0x00015a20                sd_raw_read
 .text.sd_raw_read_interval
                0x00015da6      0x17a build/mighty_one-2560/MightyBoard/Motherboard/lib_sd/sd_raw.o
                0x00015da6                sd_raw_read_interval
 .text.sd_raw_init
                0x00015f20      0x2de build/mighty_one-2560/MightyBoard/Motherboard/lib_sd/sd_raw.o
                0x00015f20                sd_raw_init
 .text.sd_raw_write
                0x000161fe      0x3ae build/mighty_one-2560/MightyBoard/Motherboard/lib_sd/sd_raw.o
                0x000161fe                sd_raw_write
 .text.sd_raw_write_interval
                0x000165ac      0x178 build/mighty_one-2560/MightyBoard/Motherboard/lib_sd/sd_raw.o
                0x000165ac                sd_raw_write_interval
 .text.startup._GLOBAL__sub_I_sd_errno
                0x00016724       0x10 build/mighty_one-2560/MightyBoard/Motherboard/lib_sd/sd_raw.o
 .text._Z13initAnalogPinh
                0x00016734       0x6e build/mighty_one-2560/MightyBoard/shared/AnalogPin.o
                0x00016734                _Z13initAnalogPinh
 .text._Z15startAnalogReadhPViPVb
                0x000167a2       0x52 build/mighty_one-2560/MightyBoard/shared/AnalogPin.o
                0x000167a2                _Z15startAnalogReadhPViPVb
 .text.__vector_29
                0x000167f4       0x5e build/mighty_one-2560/MightyBoard/shared/AnalogPin.o
                0x000167f4                __vector_29
 .text.startup._GLOBAL__sub_I_PortA
                0x00016852       0x92 build/mighty_one-2560/MightyBoard/shared/AvrPort.o
 .text._ZN10CoolingFan11setSetpointEi
                0x000168e4       0x1c build/mighty_one-2560/MightyBoard/shared/CoolingFan.o
                0x000168e4                _ZN10CoolingFan11setSetpointEi
 .text._ZN10CoolingFan6enableEv
                0x00016900        0x8 build/mighty_one-2560/MightyBoard/shared/CoolingFan.o
                0x00016900                _ZN10CoolingFan6enableEv
 .text._ZN10CoolingFan9enableFanEv
                0x00016908        0xa build/mighty_one-2560/MightyBoard/shared/CoolingFan.o
                0x00016908                _ZN10CoolingFan9enableFanEv
 .text._ZN10CoolingFan10disableFanEv
                0x00016912        0xa build/mighty_one-2560/MightyBoard/shared/CoolingFan.o
                0x00016912                _ZN10CoolingFan10disableFanEv
 .text._ZN10CoolingFan16manageCoolingFanEv
                0x0001691c       0x7c build/mighty_one-2560/MightyBoard/shared/CoolingFan.o
                0x0001691c                _ZN10CoolingFan16manageCoolingFanEv
 .text._ZN10CoolingFan7disableEv
                0x00016998        0xa build/mighty_one-2560/MightyBoard/shared/CoolingFan.o
                0x00016998                _ZN10CoolingFan7disableEv
 .text._ZN10CoolingFan5resetEv
                0x000169a2       0x62 build/mighty_one-2560/MightyBoard/shared/CoolingFan.o
                0x000169a2                _ZN10CoolingFan5resetEv
 .text._ZN10CoolingFanC2ER6HeaterjRK3Pin
                0x00016a04       0x26 build/mighty_one-2560/MightyBoard/shared/CoolingFan.o
                0x00016a04                _ZN10CoolingFanC1ER6HeaterjRK3Pin
                0x00016a04                _ZN10CoolingFanC2ER6HeaterjRK3Pin
 .text.startup._GLOBAL__sub_I__ZN10CoolingFanC2ER6HeaterjRK3Pin
                0x00016a2a       0x10 build/mighty_one-2560/MightyBoard/shared/CoolingFan.o
 .text._ZN8DigiPotsC2ERK3PinRKj
                0x00016a3a       0x24 build/mighty_one-2560/MightyBoard/shared/DigiPots.o
                0x00016a3a                _ZN8DigiPotsC1ERK3PinRKj
                0x00016a3a                _ZN8DigiPotsC2ERK3PinRKj
 .text._ZN8DigiPots11setPotValueEh
                0x00016a5e      0x104 build/mighty_one-2560/MightyBoard/shared/DigiPots.o
                0x00016a5e                _ZN8DigiPots11setPotValueEh
 .text._ZN8DigiPots8resetPotEv
                0x00016b62       0x28 build/mighty_one-2560/MightyBoard/shared/DigiPots.o
                0x00016b62                _ZN8DigiPots8resetPotEv
 .text._ZN8DigiPots11getPotValueEv
                0x00016b8a        0x6 build/mighty_one-2560/MightyBoard/shared/DigiPots.o
                0x00016b8a                _ZN8DigiPots11getPotValueEv
 .text.startup._GLOBAL__sub_I__ZN8DigiPotsC2ERK3PinRKj
                0x00016b90       0x10 build/mighty_one-2560/MightyBoard/shared/DigiPots.o
 .text._ZN6eeprom4initEv
                0x00016ba0       0x7a build/mighty_one-2560/MightyBoard/shared/Eeprom.o
                0x00016ba0                _ZN6eeprom4initEv
 .text._ZN6eeprom10getEeprom8Ejh
                0x00016c1a       0x32 build/mighty_one-2560/MightyBoard/shared/Eeprom.o
                0x00016c1a                _ZN6eeprom10getEeprom8Ejh
 .text._ZN6eeprom11getEeprom16Ejj
                0x00016c4c       0x44 build/mighty_one-2560/MightyBoard/shared/Eeprom.o
                0x00016c4c                _ZN6eeprom11getEeprom16Ejj
 .text._ZN6eeprom11getEeprom32Ejm
                0x00016c90       0x50 build/mighty_one-2560/MightyBoard/shared/Eeprom.o
                0x00016c90                _ZN6eeprom11getEeprom32Ejm
 .text._ZN6eeprom16getEepromFixed16Ejf
                0x00016ce0       0x9e build/mighty_one-2560/MightyBoard/shared/Eeprom.o
                0x00016ce0                _ZN6eeprom16getEepromFixed16Ejf
 .text._ZN6eeprom16setEepromFixed16Ejf
                0x00016d7e       0x74 build/mighty_one-2560/MightyBoard/shared/Eeprom.o
                0x00016d7e                _ZN6eeprom16setEepromFixed16Ejf
 .text._ZN6eeprom14getEepromInt64Ejx
                0x00016df2       0xb2 build/mighty_one-2560/MightyBoard/shared/Eeprom.o
                0x00016df2                _ZN6eeprom14getEepromInt64Ejx
 .text._ZN6eeprom14setEepromInt64Ejx
                0x00016ea4       0x4e build/mighty_one-2560/MightyBoard/shared/Eeprom.o
                0x00016ea4                _ZN6eeprom14setEepromInt64Ejx
 .text.startup._GLOBAL__sub_I__ZN6eeprom4initEv
                0x00016ef2       0x10 build/mighty_one-2560/MightyBoard/shared/Eeprom.o
 .text._ZN6Heater5abortEv
                0x00016f02      0x1dc build/mighty_one-2560/MightyBoard/shared/Heater.o
                0x00016f02                _ZN6Heater5abortEv
 .text._ZN6Heater5resetEv
                0x000170de       0x14 build/mighty_one-2560/MightyBoard/shared/Heater.o
                0x000170de                _ZN6Heater5resetEv
 .text._ZN6HeaterC2ER17TemperatureSensorR14HeatingElementmjbh
                0x000170f2       0x8c build/mighty_one-2560/MightyBoard/shared/Heater.o
                0x000170f2                _ZN6HeaterC1ER17TemperatureSensorR14HeatingElementmjbh
                0x000170f2                _ZN6HeaterC2ER17TemperatureSensorR14HeatingElementmjbh
 .text._ZN6Heater7disableEb
                0x0001717e       0x30 build/mighty_one-2560/MightyBoard/shared/Heater.o
                0x0001717e                _ZN6Heater7disableEb
 .text._ZN6Heater22set_target_temperatureEi
                0x000171ae      0x176 build/mighty_one-2560/MightyBoard/shared/Heater.o
                0x000171ae                _ZN6Heater22set_target_temperatureEi
 .text._ZN6Heater30has_reached_target_temperatureEv
                0x00017324       0x68 build/mighty_one-2560/MightyBoard/shared/Heater.o
                0x00017324                _ZN6Heater30has_reached_target_temperatureEv
 .text._ZN6Heater9isHeatingEv
                0x0001738c       0x34 build/mighty_one-2560/MightyBoard/shared/Heater.o
                0x0001738c                _ZN6Heater9isHeatingEv
 .text._ZN6Heater9isCoolingEv
                0x000173c0       0x4a build/mighty_one-2560/MightyBoard/shared/Heater.o
                0x000173c0                _ZN6Heater9isCoolingEv
 .text._ZN6Heater8getDeltaEv
                0x0001740a       0x48 build/mighty_one-2560/MightyBoard/shared/Heater.o
                0x0001740a                _ZN6Heater8getDeltaEv
 .text._ZN6Heater5PauseEb
                0x00017452      0x104 build/mighty_one-2560/MightyBoard/shared/Heater.o
                0x00017452                _ZN6Heater5PauseEb
 .text._ZN6Heater10set_outputEh
                0x00017556       0x1a build/mighty_one-2560/MightyBoard/shared/Heater.o
                0x00017556                _ZN6Heater10set_outputEh
 .text._ZN6Heater4failEv
                0x00017570       0x3e build/mighty_one-2560/MightyBoard/shared/Heater.o
                0x00017570                _ZN6Heater4failEv
 .text._ZN6Heater18manage_temperatureEv
                0x000175ae      0x24e build/mighty_one-2560/MightyBoard/shared/Heater.o
                0x000175ae                _ZN6Heater18manage_temperatureEv
 .text.startup._GLOBAL__sub_I__ZN6HeaterC2ER17TemperatureSensorR14HeatingElementmjbh
                0x000177fc       0x10 build/mighty_one-2560/MightyBoard/shared/Heater.o
 .text._ZN9interface11isConnectedEv
                0x0001780c       0x48 build/mighty_one-2560/MightyBoard/shared/Interface.o
                0x0001780c                _ZN9interface11isConnectedEv
 .text._ZN9interface4initEP14InterfaceBoardP19LiquidCrystalSerial
                0x00017854       0x12 build/mighty_one-2560/MightyBoard/shared/Interface.o
                0x00017854                _ZN9interface4initEP14InterfaceBoardP19LiquidCrystalSerial
 .text._ZN9interface10pushScreenEP6Screen
                0x00017866       0x10 build/mighty_one-2560/MightyBoard/shared/Interface.o
                0x00017866                _ZN9interface10pushScreenEP6Screen
 .text._ZN9interface9popScreenEv
                0x00017876        0xe build/mighty_one-2560/MightyBoard/shared/Interface.o
                0x00017876                _ZN9interface9popScreenEv
 .text._ZN9interface15isButtonPressedEN11ButtonArray10ButtonNameE
                0x00017884       0x10 build/mighty_one-2560/MightyBoard/shared/Interface.o
                0x00017884                _ZN9interface15isButtonPressedEN11ButtonArray10ButtonNameE
 .text.startup._GLOBAL__sub_I__ZN9interface3lcdE
                0x00017894       0x10 build/mighty_one-2560/MightyBoard/shared/Interface.o
 .text._ZN14InterfaceBoardC2ER11ButtonArrayR19LiquidCrystalSerialP6ScreenS5_P13MessageScreenS5_
                0x000178a4       0x36 build/mighty_one-2560/MightyBoard/shared/InterfaceBoard.o
                0x000178a4                _ZN14InterfaceBoardC1ER11ButtonArrayR19LiquidCrystalSerialP6ScreenS5_P13MessageScreenS5_
                0x000178a4                _ZN14InterfaceBoardC2ER11ButtonArrayR19LiquidCrystalSerialP6ScreenS5_P13MessageScreenS5_
 .text._ZN14InterfaceBoard11doInterruptEv
                0x000178da        0xc build/mighty_one-2560/MightyBoard/shared/InterfaceBoard.o
                0x000178da                _ZN14InterfaceBoard11doInterruptEv
 .text._ZN14InterfaceBoard15isButtonPressedEN11ButtonArray10ButtonNameE
                0x000178e6        0xc build/mighty_one-2560/MightyBoard/shared/InterfaceBoard.o
                0x000178e6                _ZN14InterfaceBoard15isButtonPressedEN11ButtonArray10ButtonNameE
 .text._ZN14InterfaceBoard13getUpdateRateEv
                0x000178f2       0x2a build/mighty_one-2560/MightyBoard/shared/InterfaceBoard.o
                0x000178f2                _ZN14InterfaceBoard13getUpdateRateEv
 .text._ZN14InterfaceBoard10pushScreenEP6Screen
                0x0001791c       0x88 build/mighty_one-2560/MightyBoard/shared/InterfaceBoard.o
                0x0001791c                _ZN14InterfaceBoard10pushScreenEP6Screen
 .text._ZN14InterfaceBoard12errorMessageEPKhS1_b
                0x000179a4       0x78 build/mighty_one-2560/MightyBoard/shared/InterfaceBoard.o
                0x000179a4                _ZN14InterfaceBoard12errorMessageEPKhS1_b
 .text._ZN14InterfaceBoard12errorMessageEPKhb
                0x00017a1c        0xc build/mighty_one-2560/MightyBoard/shared/InterfaceBoard.o
                0x00017a1c                _ZN14InterfaceBoard12errorMessageEPKhb
 .text._ZN14InterfaceBoard4initEv
                0x00017a28       0x76 build/mighty_one-2560/MightyBoard/shared/InterfaceBoard.o
                0x00017a28                _ZN14InterfaceBoard4initEv
 .text._ZN14InterfaceBoard9popScreenEv
                0x00017a9e       0x50 build/mighty_one-2560/MightyBoard/shared/InterfaceBoard.o
                0x00017a9e                _ZN14InterfaceBoard9popScreenEv
 .text._ZN14InterfaceBoard8doUpdateEv
                0x00017aee      0x2bc build/mighty_one-2560/MightyBoard/shared/InterfaceBoard.o
                0x00017aee                _ZN14InterfaceBoard8doUpdateEv
 .text._ZN14InterfaceBoard13waitForButtonEh
                0x00017daa        0x6 build/mighty_one-2560/MightyBoard/shared/InterfaceBoard.o
                0x00017daa                _ZN14InterfaceBoard13waitForButtonEh
 .text._ZN14InterfaceBoard12buttonPushedEv
                0x00017db0        0xe build/mighty_one-2560/MightyBoard/shared/InterfaceBoard.o
                0x00017db0                _ZN14InterfaceBoard12buttonPushedEv
 .text.startup._GLOBAL__sub_I_button_timeout
                0x00017dbe       0x18 build/mighty_one-2560/MightyBoard/shared/InterfaceBoard.o
 .text._ZN19LiquidCrystalSerialC2E3PinS0_S0_S0_S0_
                0x00017dd6      0x160 build/mighty_one-2560/MightyBoard/shared/LiquidCrystalSerial.o
                0x00017dd6                _ZN19LiquidCrystalSerialC1E3PinS0_S0_S0_S0_
                0x00017dd6                _ZN19LiquidCrystalSerialC2E3PinS0_S0_S0_S0_
 .text._ZN19LiquidCrystalSerial10setAddressEhh
                0x00017f36        0x8 build/mighty_one-2560/MightyBoard/shared/LiquidCrystalSerial.o
                0x00017f36                _ZN19LiquidCrystalSerial10setAddressEhh
 .text._ZN19LiquidCrystalSerial9setCursorEhh
                0x00017f3e       0x18 build/mighty_one-2560/MightyBoard/shared/LiquidCrystalSerial.o
                0x00017f3e                _ZN19LiquidCrystalSerial9setCursorEhh
 .text._ZN19LiquidCrystalSerial6setRowEh
                0x00017f56        0xa build/mighty_one-2560/MightyBoard/shared/LiquidCrystalSerial.o
                0x00017f56                _ZN19LiquidCrystalSerial6setRowEh
 .text._ZN19LiquidCrystalSerial12setCursorExtEaa
                0x00017f60       0x24 build/mighty_one-2560/MightyBoard/shared/LiquidCrystalSerial.o
                0x00017f60                _ZN19LiquidCrystalSerial12setCursorExtEaa
 .text._ZN19LiquidCrystalSerial8writeIntEjh
                0x00017f84      0x10c build/mighty_one-2560/MightyBoard/shared/LiquidCrystalSerial.o
                0x00017f84                _ZN19LiquidCrystalSerial8writeIntEjh
 .text._ZN19LiquidCrystalSerial9writeLineEPc
                0x00018090       0x34 build/mighty_one-2560/MightyBoard/shared/LiquidCrystalSerial.o
                0x00018090                _ZN19LiquidCrystalSerial9writeLineEPc
 .text._ZN19LiquidCrystalSerial11writeStringEPc
                0x000180c4       0x2e build/mighty_one-2560/MightyBoard/shared/LiquidCrystalSerial.o
                0x000180c4                _ZN19LiquidCrystalSerial11writeStringEPc
 .text._ZN19LiquidCrystalSerial10writeFloatEfhh
                0x000180f2      0x2f8 build/mighty_one-2560/MightyBoard/shared/LiquidCrystalSerial.o
                0x000180f2                _ZN19LiquidCrystalSerial10writeFloatEfhh
 .text._ZN19LiquidCrystalSerial17writeFromPgmspaceEPKh
                0x000183ea       0x30 build/mighty_one-2560/MightyBoard/shared/LiquidCrystalSerial.o
                0x000183ea                _ZN19LiquidCrystalSerial17writeFromPgmspaceEPKh
 .text._ZN19LiquidCrystalSerial21moveWriteFromPgmspaceEhhPKh
                0x0001841a       0x34 build/mighty_one-2560/MightyBoard/shared/LiquidCrystalSerial.o
                0x0001841a                _ZN19LiquidCrystalSerial21moveWriteFromPgmspaceEhhPKh
 .text._ZN19LiquidCrystalSerial10LCD_WR_CMDEh
                0x0001844e       0x7c build/mighty_one-2560/MightyBoard/shared/LiquidCrystalSerial.o
                0x0001844e                _ZN19LiquidCrystalSerial10LCD_WR_CMDEh
 .text._ZN19LiquidCrystalSerial5beginEv
                0x000184ca       0xe2 build/mighty_one-2560/MightyBoard/shared/LiquidCrystalSerial.o
                0x000184ca                _ZN19LiquidCrystalSerial5beginEv
 .text._ZN19LiquidCrystalSerial11LCD_WR_DATAEh
                0x000185ac       0x7c build/mighty_one-2560/MightyBoard/shared/LiquidCrystalSerial.o
                0x000185ac                _ZN19LiquidCrystalSerial11LCD_WR_DATAEh
 .text._ZN19LiquidCrystalSerial11disp_icon_4EhhhhPKh
                0x00018628       0xa6 build/mighty_one-2560/MightyBoard/shared/LiquidCrystalSerial.o
                0x00018628                _ZN19LiquidCrystalSerial11disp_icon_4EhhhhPKh
 .text._ZN19LiquidCrystalSerial10writeBeansEh
                0x000186ce       0x40 build/mighty_one-2560/MightyBoard/shared/LiquidCrystalSerial.o
                0x000186ce                _ZN19LiquidCrystalSerial10writeBeansEh
 .text._ZN19LiquidCrystalSerial9writeLineEh
                0x0001870e       0x48 build/mighty_one-2560/MightyBoard/shared/LiquidCrystalSerial.o
                0x0001870e                _ZN19LiquidCrystalSerial9writeLineEh
 .text._ZN19LiquidCrystalSerial16writeProgressBarEb
                0x00018756       0x7e build/mighty_one-2560/MightyBoard/shared/LiquidCrystalSerial.o
                0x00018756                _ZN19LiquidCrystalSerial16writeProgressBarEb
 .text._ZN19LiquidCrystalSerial13LCD_MONO_DATAEh
                0x000187d4       0x3c build/mighty_one-2560/MightyBoard/shared/LiquidCrystalSerial.o
                0x000187d4                _ZN19LiquidCrystalSerial13LCD_MONO_DATAEh
 .text._ZN19LiquidCrystalSerial9disp_iconEhhhhPKh
                0x00018810       0xa8 build/mighty_one-2560/MightyBoard/shared/LiquidCrystalSerial.o
                0x00018810                _ZN19LiquidCrystalSerial9disp_iconEhhhhPKh
 .text._ZN19LiquidCrystalSerial8writeNumEh
                0x000188b8       0x98 build/mighty_one-2560/MightyBoard/shared/LiquidCrystalSerial.o
                0x000188b8                _ZN19LiquidCrystalSerial8writeNumEh
 .text._ZN19LiquidCrystalSerial11writeNumIntEjh
                0x00018950       0xf8 build/mighty_one-2560/MightyBoard/shared/LiquidCrystalSerial.o
                0x00018950                _ZN19LiquidCrystalSerial11writeNumIntEjh
 .text._ZN19LiquidCrystalSerial7writeCHEh
                0x00018a48       0x98 build/mighty_one-2560/MightyBoard/shared/LiquidCrystalSerial.o
                0x00018a48                _ZN19LiquidCrystalSerial7writeCHEh
 .text._ZN19LiquidCrystalSerial23moveWriteFromPgmspaceCHEhhPKh
                0x00018ae0       0x2c build/mighty_one-2560/MightyBoard/shared/LiquidCrystalSerial.o
                0x00018ae0                _ZN19LiquidCrystalSerial23moveWriteFromPgmspaceCHEhhPKh
 .text._ZN19LiquidCrystalSerial19writeFromPgmspaceCHEPKh
                0x00018b0c       0x28 build/mighty_one-2560/MightyBoard/shared/LiquidCrystalSerial.o
                0x00018b0c                _ZN19LiquidCrystalSerial19writeFromPgmspaceCHEPKh
 .text._ZN19LiquidCrystalSerial5writeEh
                0x00018b34       0x90 build/mighty_one-2560/MightyBoard/shared/LiquidCrystalSerial.o
                0x00018b34                _ZN19LiquidCrystalSerial5writeEh
 .text._ZN19LiquidCrystalSerial5clearEv
                0x00018bc4       0x40 build/mighty_one-2560/MightyBoard/shared/LiquidCrystalSerial.o
                0x00018bc4                _ZN19LiquidCrystalSerial5clearEv
 .text._ZN19LiquidCrystalSerial15clearHomeCursorEv
                0x00018c04       0x1a build/mighty_one-2560/MightyBoard/shared/LiquidCrystalSerial.o
                0x00018c04                _ZN19LiquidCrystalSerial15clearHomeCursorEv
 .text._ZN19LiquidCrystalSerial15LCD_MONO_DATA_REh
                0x00018c1e       0x3c build/mighty_one-2560/MightyBoard/shared/LiquidCrystalSerial.o
                0x00018c1e                _ZN19LiquidCrystalSerial15LCD_MONO_DATA_REh
 .text._ZN19LiquidCrystalSerial14writeInversionEh
                0x00018c5a       0x90 build/mighty_one-2560/MightyBoard/shared/LiquidCrystalSerial.o
                0x00018c5a                _ZN19LiquidCrystalSerial14writeInversionEh
 .text._ZN19LiquidCrystalSerial19writeFromPgmspace_REPKh
                0x00018cea       0x28 build/mighty_one-2560/MightyBoard/shared/LiquidCrystalSerial.o
                0x00018cea                _ZN19LiquidCrystalSerial19writeFromPgmspace_REPKh
 .text._ZN19LiquidCrystalSerial9writeCH_REh
                0x00018d12       0x98 build/mighty_one-2560/MightyBoard/shared/LiquidCrystalSerial.o
                0x00018d12                _ZN19LiquidCrystalSerial9writeCH_REh
 .text._ZN19LiquidCrystalSerial21writeFromPgmspaceCH_REPKh
                0x00018daa       0x28 build/mighty_one-2560/MightyBoard/shared/LiquidCrystalSerial.o
                0x00018daa                _ZN19LiquidCrystalSerial21writeFromPgmspaceCH_REPKh
 .text.startup._GLOBAL__sub_I__ZN19LiquidCrystalSerialC2E3PinS0_S0_S0_S0_
                0x00018dd2       0x10 build/mighty_one-2560/MightyBoard/shared/LiquidCrystalSerial.o
 .text._ZN4Menu13getUpdateRateEv
                0x00018de2        0xa build/mighty_one-2560/MightyBoard/shared/Menu.o
                0x00018de2                _ZN4Menu13getUpdateRateEv
 .text._ZN12SplashScreen13getUpdateRateEv
                0x00018dec        0xa build/mighty_one-2560/MightyBoard/shared/Menu.o
                0x00018dec                _ZN12SplashScreen13getUpdateRateEv
 .text._ZN14FilamentScreen13getUpdateRateEv
                0x00018df6        0xa build/mighty_one-2560/MightyBoard/shared/Menu.o
                0x00018df6                _ZN14FilamentScreen13getUpdateRateEv
 .text._ZN12FilamentMenu13getUpdateRateEv
                0x00018e00        0xa build/mighty_one-2560/MightyBoard/shared/Menu.o
                0x00018e00                _ZN12FilamentMenu13getUpdateRateEv
 .text._ZN17ChangeSpeedScreen13getUpdateRateEv
                0x00018e0a        0xa build/mighty_one-2560/MightyBoard/shared/Menu.o
                0x00018e0a                _ZN17ChangeSpeedScreen13getUpdateRateEv
 .text._ZN16ChangeTempScreen13getUpdateRateEv
                0x00018e14        0xa build/mighty_one-2560/MightyBoard/shared/Menu.o
                0x00018e14                _ZN16ChangeTempScreen13getUpdateRateEv
 .text._ZN15ActiveBuildMenu13getUpdateRateEv
                0x00018e1e        0xa build/mighty_one-2560/MightyBoard/shared/Menu.o
                0x00018e1e                _ZN15ActiveBuildMenu13getUpdateRateEv
 .text._ZN13MessageScreen13getUpdateRateEv
                0x00018e28        0xa build/mighty_one-2560/MightyBoard/shared/Menu.o
                0x00018e28                _ZN13MessageScreen13getUpdateRateEv
 .text._ZN13JogModeScreen13getUpdateRateEv
                0x00018e32        0xa build/mighty_one-2560/MightyBoard/shared/Menu.o
                0x00018e32                _ZN13JogModeScreen13getUpdateRateEv
 .text._ZN6SDMenu13getUpdateRateEv
                0x00018e3c        0xa build/mighty_one-2560/MightyBoard/shared/Menu.o
                0x00018e3c                _ZN6SDMenu13getUpdateRateEv
 .text._ZN17FinishedPrintMenu13getUpdateRateEv
                0x00018e46        0xa build/mighty_one-2560/MightyBoard/shared/Menu.o
                0x00018e46                _ZN17FinishedPrintMenu13getUpdateRateEv
 .text._ZN12LanguageMenu13getUpdateRateEv
                0x00018e50        0xa build/mighty_one-2560/MightyBoard/shared/Menu.o
                0x00018e50                _ZN12LanguageMenu13getUpdateRateEv
 .text._ZN21HomeOffsetsModeScreen13getUpdateRateEv
                0x00018e5a        0xa build/mighty_one-2560/MightyBoard/shared/Menu.o
                0x00018e5a                _ZN21HomeOffsetsModeScreen13getUpdateRateEv
 .text._ZN17MonitorModeScreen13getUpdateRateEv
                0x00018e64        0xa build/mighty_one-2560/MightyBoard/shared/Menu.o
                0x00018e64                _ZN17MonitorModeScreen13getUpdateRateEv
 .text._ZN12SettingsMenu13getUpdateRateEv
                0x00018e6e        0xa build/mighty_one-2560/MightyBoard/shared/Menu.o
                0x00018e6e                _ZN12SettingsMenu13getUpdateRateEv
 .text._ZN8MainMenu13getUpdateRateEv
                0x00018e78        0xa build/mighty_one-2560/MightyBoard/shared/Menu.o
                0x00018e78                _ZN8MainMenu13getUpdateRateEv
 .text._ZN12SplashScreen5resetEv
                0x00018e82        0x2 build/mighty_one-2560/MightyBoard/shared/Menu.o
                0x00018e82                _ZN12SplashScreen5resetEv
 .text._ZN4Menu5resetEv
                0x00018e84       0x26 build/mighty_one-2560/MightyBoard/shared/Menu.o
                0x00018e84                _ZN4Menu5resetEv
 .text._ZN8MainMenu8drawItemEhR19LiquidCrystalSerial
                0x00018eaa        0x2 build/mighty_one-2560/MightyBoard/shared/Menu.o
                0x00018eaa                _ZN8MainMenu8drawItemEhR19LiquidCrystalSerial
 .text._ZN17FinishedPrintMenu10resetStateEv
                0x00018eac       0x26 build/mighty_one-2560/MightyBoard/shared/Menu.o
                0x00018eac                _ZN17FinishedPrintMenu10resetStateEv
 .text._ZN13MessageScreen5resetEv
                0x00018ed2       0x54 build/mighty_one-2560/MightyBoard/shared/Menu.o
                0x00018ed2                _ZN13MessageScreen5resetEv
 .text._ZN17ChangeSpeedScreen19notifyButtonPressedEN11ButtonArray10ButtonNameE
                0x00018f26       0xc4 build/mighty_one-2560/MightyBoard/shared/Menu.o
                0x00018f26                _ZN17ChangeSpeedScreen19notifyButtonPressedEN11ButtonArray10ButtonNameE
 .text._ZN12SplashScreen19notifyButtonPressedEN11ButtonArray10ButtonNameE
                0x00018fea       0x1a build/mighty_one-2560/MightyBoard/shared/Menu.o
                0x00018fea                _ZN12SplashScreen19notifyButtonPressedEN11ButtonArray10ButtonNameE
 .text._ZL11MenuBadnessPKh
                0x00019004       0x1e build/mighty_one-2560/MightyBoard/shared/Menu.o
 .text._ZN12SettingsMenu12handleSelectEh
                0x00019022       0x8c build/mighty_one-2560/MightyBoard/shared/Menu.o
                0x00019022                _ZN12SettingsMenu12handleSelectEh
 .text._ZN12SettingsMenu8drawItemEhR19LiquidCrystalSerial
                0x000190ae      0x24e build/mighty_one-2560/MightyBoard/shared/Menu.o
                0x000190ae                _ZN12SettingsMenu8drawItemEhR19LiquidCrystalSerial
 .text._ZN12SettingsMenu10resetStateEv
                0x000192fc       0x42 build/mighty_one-2560/MightyBoard/shared/Menu.o
                0x000192fc                _ZN12SettingsMenu10resetStateEv
 .text._ZN8MainMenu10resetStateEv
                0x0001933e       0x10 build/mighty_one-2560/MightyBoard/shared/Menu.o
                0x0001933e                _ZN8MainMenu10resetStateEv
 .text._ZN15CancelBuildMenu10resetStateEv
                0x0001934e       0x12 build/mighty_one-2560/MightyBoard/shared/Menu.o
                0x0001934e                _ZN15CancelBuildMenu10resetStateEv
 .text._ZN17ChangeSpeedScreen5resetEv
                0x00019360       0x2a build/mighty_one-2560/MightyBoard/shared/Menu.o
                0x00019360                _ZN17ChangeSpeedScreen5resetEv
 .text._ZN12LanguageMenu10resetStateEv
                0x0001938a       0x12 build/mighty_one-2560/MightyBoard/shared/Menu.o
                0x0001938a                _ZN12LanguageMenu10resetStateEv
 .text._ZN17ResetSettingsMenu10resetStateEv
                0x0001939c       0x12 build/mighty_one-2560/MightyBoard/shared/Menu.o
                0x0001939c                _ZN17ResetSettingsMenu10resetStateEv
 .text._ZN12FilamentMenu10resetStateEv
                0x000193ae       0x16 build/mighty_one-2560/MightyBoard/shared/Menu.o
                0x000193ae                _ZN12FilamentMenu10resetStateEv
 .text._ZN14FilamentScreen5resetEv
                0x000193c4       0x76 build/mighty_one-2560/MightyBoard/shared/Menu.o
                0x000193c4                _ZN14FilamentScreen5resetEv
 .text._ZN8MainMenu6updateER19LiquidCrystalSerialb
                0x0001943a      0x3a8 build/mighty_one-2560/MightyBoard/shared/Menu.o
                0x0001943a                _ZN8MainMenu6updateER19LiquidCrystalSerialb
 .text._ZN15ActiveBuildMenu8drawItemEhR19LiquidCrystalSerial
                0x000197e2      0x194 build/mighty_one-2560/MightyBoard/shared/Menu.o
                0x000197e2                _ZN15ActiveBuildMenu8drawItemEhR19LiquidCrystalSerial
 .text._ZN12FilamentMenu8drawItemEhR19LiquidCrystalSerial
                0x00019976       0xf8 build/mighty_one-2560/MightyBoard/shared/Menu.o
                0x00019976                _ZN12FilamentMenu8drawItemEhR19LiquidCrystalSerial
 .text._ZN17ResetSettingsMenu8drawItemEhR19LiquidCrystalSerial
                0x00019a6e      0x104 build/mighty_one-2560/MightyBoard/shared/Menu.o
                0x00019a6e                _ZN17ResetSettingsMenu8drawItemEhR19LiquidCrystalSerial
 .text._ZN16ChangeTempScreen19notifyButtonPressedEN11ButtonArray10ButtonNameE
                0x00019b72      0x11a build/mighty_one-2560/MightyBoard/shared/Menu.o
                0x00019b72                _ZN16ChangeTempScreen19notifyButtonPressedEN11ButtonArray10ButtonNameE
 .text._ZN4Menu6updateER19LiquidCrystalSerialb
                0x00019c8c      0x182 build/mighty_one-2560/MightyBoard/shared/Menu.o
                0x00019c8c                _ZN4Menu6updateER19LiquidCrystalSerialb
 .text._ZN17ChangeSpeedScreen6updateER19LiquidCrystalSerialb
                0x00019e0e       0x7e build/mighty_one-2560/MightyBoard/shared/Menu.o
                0x00019e0e                _ZN17ChangeSpeedScreen6updateER19LiquidCrystalSerialb
 .text._ZN21HomeOffsetsModeScreen6updateER19LiquidCrystalSerialb
                0x00019e8c      0x306 build/mighty_one-2560/MightyBoard/shared/Menu.o
                0x00019e8c                _ZN21HomeOffsetsModeScreen6updateER19LiquidCrystalSerialb
 .text._ZN21HomeOffsetsModeScreen5resetEv
                0x0001a192       0x30 build/mighty_one-2560/MightyBoard/shared/Menu.o
                0x0001a192                _ZN21HomeOffsetsModeScreen5resetEv
 .text._ZN17MonitorModeScreen5resetEv
                0x0001a1c2       0x34 build/mighty_one-2560/MightyBoard/shared/Menu.o
                0x0001a1c2                _ZN17MonitorModeScreen5resetEv
 .text._ZN13JogModeScreen6updateER19LiquidCrystalSerialb
                0x0001a1f6      0x54c build/mighty_one-2560/MightyBoard/shared/Menu.o
                0x0001a1f6                _ZN13JogModeScreen6updateER19LiquidCrystalSerialb
 .text._ZN13JogModeScreen5resetEv
                0x0001a742       0x4a build/mighty_one-2560/MightyBoard/shared/Menu.o
                0x0001a742                _ZN13JogModeScreen5resetEv
 .text._ZN13MessageScreen6updateER19LiquidCrystalSerialb
                0x0001a78c       0xa8 build/mighty_one-2560/MightyBoard/shared/Menu.o
                0x0001a78c                _ZN13MessageScreen6updateER19LiquidCrystalSerialb
 .text._ZN8MainMenu19notifyButtonPressedEN11ButtonArray10ButtonNameE
                0x0001a834       0x92 build/mighty_one-2560/MightyBoard/shared/Menu.o
                0x0001a834                _ZN8MainMenu19notifyButtonPressedEN11ButtonArray10ButtonNameE
 .text._ZN4Menu19notifyButtonPressedEN11ButtonArray10ButtonNameE
                0x0001a8c6       0x82 build/mighty_one-2560/MightyBoard/shared/Menu.o
                0x0001a8c6                _ZN4Menu19notifyButtonPressedEN11ButtonArray10ButtonNameE
 .text._ZN6SDMenu19notifyButtonPressedEN11ButtonArray10ButtonNameE
                0x0001a948        0xc build/mighty_one-2560/MightyBoard/shared/Menu.o
                0x0001a948                _ZN6SDMenu19notifyButtonPressedEN11ButtonArray10ButtonNameE
 .text._ZN8MainMenu12handleSelectEh
                0x0001a954       0x40 build/mighty_one-2560/MightyBoard/shared/Menu.o
                0x0001a954                _ZN8MainMenu12handleSelectEh
 .text._ZN17MonitorModeScreen19notifyButtonPressedEN11ButtonArray10ButtonNameE
                0x0001a994       0x30 build/mighty_one-2560/MightyBoard/shared/Menu.o
                0x0001a994                _ZN17MonitorModeScreen19notifyButtonPressedEN11ButtonArray10ButtonNameE
 .text._ZN13MessageScreen19notifyButtonPressedEN11ButtonArray10ButtonNameE
                0x0001a9c4       0x36 build/mighty_one-2560/MightyBoard/shared/Menu.o
                0x0001a9c4                _ZN13MessageScreen19notifyButtonPressedEN11ButtonArray10ButtonNameE
 .text._ZN12LanguageMenu8drawItemEhR19LiquidCrystalSerial
                0x0001a9fa       0xce build/mighty_one-2560/MightyBoard/shared/Menu.o
                0x0001a9fa                _ZN12LanguageMenu8drawItemEhR19LiquidCrystalSerial
 .text._ZN12SplashScreen6updateER19LiquidCrystalSerialb
                0x0001aac8      0x18c build/mighty_one-2560/MightyBoard/shared/Menu.o
                0x0001aac8                _ZN12SplashScreen6updateER19LiquidCrystalSerialb
 .text._ZN15CancelBuildMenu12handleSelectEh
                0x0001ac54       0x4e build/mighty_one-2560/MightyBoard/shared/Menu.o
                0x0001ac54                _ZN15CancelBuildMenu12handleSelectEh
 .text._ZN15CancelBuildMenu8drawItemEhR19LiquidCrystalSerial
                0x0001aca2       0x8a build/mighty_one-2560/MightyBoard/shared/Menu.o
                0x0001aca2                _ZN15CancelBuildMenu8drawItemEhR19LiquidCrystalSerial
 .text._ZN15ActiveBuildMenu12handleSelectEh
                0x0001ad2c      0x10a build/mighty_one-2560/MightyBoard/shared/Menu.o
                0x0001ad2c                _ZN15ActiveBuildMenu12handleSelectEh
 .text._ZN21HomeOffsetsModeScreen19notifyButtonPressedEN11ButtonArray10ButtonNameE
                0x0001ae36       0xba build/mighty_one-2560/MightyBoard/shared/Menu.o
                0x0001ae36                _ZN21HomeOffsetsModeScreen19notifyButtonPressedEN11ButtonArray10ButtonNameE
 .text._ZN12LanguageMenu12handleSelectEh
                0x0001aef0       0x34 build/mighty_one-2560/MightyBoard/shared/Menu.o
                0x0001aef0                _ZN12LanguageMenu12handleSelectEh
 .text._ZL11progressBarR19LiquidCrystalSerialiib.isra.12
                0x0001af24      0x112 build/mighty_one-2560/MightyBoard/shared/Menu.o
 .text._ZN17MonitorModeScreen6updateER19LiquidCrystalSerialb
                0x0001b036      0x368 build/mighty_one-2560/MightyBoard/shared/Menu.o
                0x0001b036                _ZN17MonitorModeScreen6updateER19LiquidCrystalSerialb
 .text._ZN6SDMenu6updateER19LiquidCrystalSerialb
                0x0001b39e       0x7c build/mighty_one-2560/MightyBoard/shared/Menu.o
                0x0001b39e                _ZN6SDMenu6updateER19LiquidCrystalSerialb
 .text._ZN17ResetSettingsMenu12handleSelectEh
                0x0001b41a       0x1a build/mighty_one-2560/MightyBoard/shared/Menu.o
                0x0001b41a                _ZN17ResetSettingsMenu12handleSelectEh
 .text._ZN15ActiveBuildMenu10resetStateEv
                0x0001b434      0x11e build/mighty_one-2560/MightyBoard/shared/Menu.o
                0x0001b434                _ZN15ActiveBuildMenu10resetStateEv
 .text._ZN14FilamentScreen10startMotorEv
                0x0001b552      0x15a build/mighty_one-2560/MightyBoard/shared/Menu.o
                0x0001b552                _ZN14FilamentScreen10startMotorEv
 .text._ZN14FilamentScreen9stopMotorEv
                0x0001b6ac       0x50 build/mighty_one-2560/MightyBoard/shared/Menu.o
                0x0001b6ac                _ZN14FilamentScreen9stopMotorEv
 .text._ZN14FilamentScreen19notifyButtonPressedEN11ButtonArray10ButtonNameE
                0x0001b6fc       0x9a build/mighty_one-2560/MightyBoard/shared/Menu.o
                0x0001b6fc                _ZN14FilamentScreen19notifyButtonPressedEN11ButtonArray10ButtonNameE
 .text._ZN14FilamentScreen6updateER19LiquidCrystalSerialb
                0x0001b796      0x4b2 build/mighty_one-2560/MightyBoard/shared/Menu.o
                0x0001b796                _ZN14FilamentScreen6updateER19LiquidCrystalSerialb
 .text._ZN14FilamentScreen9setScriptE14FilamentScript
                0x0001bc48       0x42 build/mighty_one-2560/MightyBoard/shared/Menu.o
                0x0001bc48                _ZN14FilamentScreen9setScriptE14FilamentScript
 .text._ZN12FilamentMenu12handleSelectEh
                0x0001bc8a       0x2e build/mighty_one-2560/MightyBoard/shared/Menu.o
                0x0001bc8a                _ZN12FilamentMenu12handleSelectEh
 .text._ZN12FilamentMenuC2Ev
                0x0001bcb8       0x14 build/mighty_one-2560/MightyBoard/shared/Menu.o
                0x0001bcb8                _ZN12FilamentMenuC1Ev
                0x0001bcb8                _ZN12FilamentMenuC2Ev
 .text._ZN13MessageScreen13screenWaitingEv
                0x0001bccc       0x1a build/mighty_one-2560/MightyBoard/shared/Menu.o
                0x0001bccc                _ZN13MessageScreen13screenWaitingEv
 .text._ZN13MessageScreen10addMessageER19CircularBufferTemplIhE
                0x0001bce6       0xee build/mighty_one-2560/MightyBoard/shared/Menu.o
                0x0001bce6                _ZN13MessageScreen10addMessageER19CircularBufferTemplIhE
 .text._ZN13MessageScreen10addMessageEPKh
                0x0001bdd4       0x5c build/mighty_one-2560/MightyBoard/shared/Menu.o
                0x0001bdd4                _ZN13MessageScreen10addMessageEPKh
 .text._ZN13MessageScreen12clearMessageEv
                0x0001be30       0x6a build/mighty_one-2560/MightyBoard/shared/Menu.o
                0x0001be30                _ZN13MessageScreen12clearMessageEv
 .text._ZN13MessageScreen10setTimeoutEh
                0x0001be9a       0x2c build/mighty_one-2560/MightyBoard/shared/Menu.o
                0x0001be9a                _ZN13MessageScreen10setTimeoutEh
 .text._ZN13MessageScreen13refreshScreenEv
                0x0001bec6        0xc build/mighty_one-2560/MightyBoard/shared/Menu.o
                0x0001bec6                _ZN13MessageScreen13refreshScreenEv
 .text._ZN13JogModeScreen3jogEN11ButtonArray10ButtonNameE
                0x0001bed2      0x22c build/mighty_one-2560/MightyBoard/shared/Menu.o
                0x0001bed2                _ZN13JogModeScreen3jogEN11ButtonArray10ButtonNameE
 .text._ZN13JogModeScreen19notifyButtonPressedEN11ButtonArray10ButtonNameE
                0x0001c0fe       0x1a build/mighty_one-2560/MightyBoard/shared/Menu.o
                0x0001c0fe                _ZN13JogModeScreen19notifyButtonPressedEN11ButtonArray10ButtonNameE
 .text._Z18printLastBuildTimePKhhR19LiquidCrystalSerial
                0x0001c118       0xa8 build/mighty_one-2560/MightyBoard/shared/Menu.o
                0x0001c118                _Z18printLastBuildTimePKhhR19LiquidCrystalSerial
 .text._Z17printFilamentUsedfR19LiquidCrystalSerial
                0x0001c1c0       0xf2 build/mighty_one-2560/MightyBoard/shared/Menu.o
                0x0001c1c0                _Z17printFilamentUsedfR19LiquidCrystalSerial
 .text._ZN17FinishedPrintMenu8drawItemEhR19LiquidCrystalSerial
                0x0001c2b2       0x8c build/mighty_one-2560/MightyBoard/shared/Menu.o
                0x0001c2b2                _ZN17FinishedPrintMenu8drawItemEhR19LiquidCrystalSerial
 .text._ZN17ResetSettingsMenuC2Ev
                0x0001c33e       0x16 build/mighty_one-2560/MightyBoard/shared/Menu.o
                0x0001c33e                _ZN17ResetSettingsMenuC2Ev
                0x0001c33e                _ZN17ResetSettingsMenuC1Ev
 .text._ZN12LanguageMenuC2Ev
                0x0001c354       0x16 build/mighty_one-2560/MightyBoard/shared/Menu.o
                0x0001c354                _ZN12LanguageMenuC2Ev
                0x0001c354                _ZN12LanguageMenuC1Ev
 .text._ZN16ChangeTempScreen7getTempEv
                0x0001c36a       0xb4 build/mighty_one-2560/MightyBoard/shared/Menu.o
                0x0001c36a                _ZN16ChangeTempScreen7getTempEv
 .text._ZN16ChangeTempScreen6updateER19LiquidCrystalSerialb
                0x0001c41e       0x6a build/mighty_one-2560/MightyBoard/shared/Menu.o
                0x0001c41e                _ZN16ChangeTempScreen6updateER19LiquidCrystalSerialb
 .text._ZN16ChangeTempScreen5resetEv
                0x0001c488       0x18 build/mighty_one-2560/MightyBoard/shared/Menu.o
                0x0001c488                _ZN16ChangeTempScreen5resetEv
 .text._ZN15ActiveBuildMenuC2Ev
                0x0001c4a0       0x14 build/mighty_one-2560/MightyBoard/shared/Menu.o
                0x0001c4a0                _ZN15ActiveBuildMenuC2Ev
                0x0001c4a0                _ZN15ActiveBuildMenuC1Ev
 .text._ZN15CancelBuildMenuC2Ev
                0x0001c4b4       0x18 build/mighty_one-2560/MightyBoard/shared/Menu.o
                0x0001c4b4                _ZN15CancelBuildMenuC2Ev
                0x0001c4b4                _ZN15CancelBuildMenuC1Ev
 .text._ZN8MainMenuC2Ev
                0x0001c4cc       0x18 build/mighty_one-2560/MightyBoard/shared/Menu.o
                0x0001c4cc                _ZN8MainMenuC2Ev
                0x0001c4cc                _ZN8MainMenuC1Ev
 .text._ZN12SettingsMenuC2Ev
                0x0001c4e4       0x18 build/mighty_one-2560/MightyBoard/shared/Menu.o
                0x0001c4e4                _ZN12SettingsMenuC2Ev
                0x0001c4e4                _ZN12SettingsMenuC1Ev
 .text._Z9isSXGFilePch
                0x0001c4fc       0x48 build/mighty_one-2560/MightyBoard/shared/Menu.o
                0x0001c4fc                _Z9isSXGFilePch
 .text._Z10countFilesv
                0x0001c544       0x80 build/mighty_one-2560/MightyBoard/shared/Menu.o
                0x0001c544                _Z10countFilesv
 .text._ZN6SDMenu10resetStateEv
                0x0001c5c4       0x32 build/mighty_one-2560/MightyBoard/shared/Menu.o
                0x0001c5c4                _ZN6SDMenu10resetStateEv
 .text._Z11getFilenamehPchPhPb
                0x0001c5f6       0xc8 build/mighty_one-2560/MightyBoard/shared/Menu.o
                0x0001c5f6                _Z11getFilenamehPchPhPb
 .text._ZN6SDMenu12handleSelectEh
                0x0001c6be      0x184 build/mighty_one-2560/MightyBoard/shared/Menu.o
                0x0001c6be                _ZN6SDMenu12handleSelectEh
 .text._ZN6SDMenu8drawItemEhR19LiquidCrystalSerial
                0x0001c842      0x154 build/mighty_one-2560/MightyBoard/shared/Menu.o
                0x0001c842                _ZN6SDMenu8drawItemEhR19LiquidCrystalSerial
 .text._ZN17FinishedPrintMenu12handleSelectEh
                0x0001c996       0x8c build/mighty_one-2560/MightyBoard/shared/Menu.o
                0x0001c996                _ZN17FinishedPrintMenu12handleSelectEh
 .text._ZN17FinishedPrintMenuC2Ev
                0x0001ca22       0x16 build/mighty_one-2560/MightyBoard/shared/Menu.o
                0x0001ca22                _ZN17FinishedPrintMenuC1Ev
                0x0001ca22                _ZN17FinishedPrintMenuC2Ev
 .text._ZN6SDMenuC2Ev
                0x0001ca38       0x24 build/mighty_one-2560/MightyBoard/shared/Menu.o
                0x0001ca38                _ZN6SDMenuC2Ev
                0x0001ca38                _ZN6SDMenuC1Ev
 .text.startup._GLOBAL__sub_I_ready_fail
                0x0001ca5c       0xc8 build/mighty_one-2560/MightyBoard/shared/Menu.o
 .text._ZN3PID11reset_stateEv
                0x0001cb24       0x4a build/mighty_one-2560/MightyBoard/shared/PID.o
                0x0001cb24                _ZN3PID11reset_stateEv
 .text._ZN3PID5resetEv
                0x0001cb6e       0x2c build/mighty_one-2560/MightyBoard/shared/PID.o
                0x0001cb6e                _ZN3PID5resetEv
 .text._ZN3PIDC2Ev
                0x0001cb9a        0x6 build/mighty_one-2560/MightyBoard/shared/PID.o
                0x0001cb9a                _ZN3PIDC1Ev
                0x0001cb9a                _ZN3PIDC2Ev
 .text._ZN3PID9calculateEf
                0x0001cba0      0x2aa build/mighty_one-2560/MightyBoard/shared/PID.o
                0x0001cba0                _ZN3PID9calculateEf
 .text._ZN3PID9setTargetEi
                0x0001ce4a       0x38 build/mighty_one-2560/MightyBoard/shared/PID.o
                0x0001ce4a                _ZN3PID9setTargetEi
 .text.startup._GLOBAL__sub_I__ZN3PSUC2ERK3Pin
                0x0001ce82       0x10 build/mighty_one-2560/MightyBoard/shared/PSU.o
 .text._ZN6Packet10appendByteEh
                0x0001ce92       0x40 build/mighty_one-2560/MightyBoard/shared/Packet.o
                0x0001ce92                _ZN6Packet10appendByteEh
 .text._ZN6Packet5resetEv
                0x0001ced2        0xc build/mighty_one-2560/MightyBoard/shared/Packet.o
                0x0001ced2                _ZN6Packet5resetEv
 .text._ZN8InPacketC2Ev
                0x0001cede        0xc build/mighty_one-2560/MightyBoard/shared/Packet.o
                0x0001cede                _ZN8InPacketC1Ev
                0x0001cede                _ZN8InPacketC2Ev
 .text._ZN8InPacket5resetEv
                0x0001ceea        0xc build/mighty_one-2560/MightyBoard/shared/Packet.o
                0x0001ceea                _ZN8InPacket5resetEv
 .text._ZN8InPacket11processByteEh
                0x0001cef6       0x80 build/mighty_one-2560/MightyBoard/shared/Packet.o
                0x0001cef6                _ZN8InPacket11processByteEh
 .text._ZNK6Packet5read8Eh
                0x0001cf76        0xa build/mighty_one-2560/MightyBoard/shared/Packet.o
                0x0001cf76                _ZNK6Packet5read8Eh
 .text._ZNK6Packet6read16Eh
                0x0001cf80       0x26 build/mighty_one-2560/MightyBoard/shared/Packet.o
                0x0001cf80                _ZNK6Packet6read16Eh
 .text._ZN9OutPacketC2Ev
                0x0001cfa6        0xe build/mighty_one-2560/MightyBoard/shared/Packet.o
                0x0001cfa6                _ZN9OutPacketC2Ev
                0x0001cfa6                _ZN9OutPacketC1Ev
 .text._ZN9OutPacket5resetEv
                0x0001cfb4        0xe build/mighty_one-2560/MightyBoard/shared/Packet.o
                0x0001cfb4                _ZN9OutPacket5resetEv
 .text._ZN9OutPacket17getNextByteToSendEv
                0x0001cfc2       0x56 build/mighty_one-2560/MightyBoard/shared/Packet.o
                0x0001cfc2                _ZN9OutPacket17getNextByteToSendEv
 .text._ZN9OutPacket7append8Eh
                0x0001d018        0x6 build/mighty_one-2560/MightyBoard/shared/Packet.o
                0x0001d018                _ZN9OutPacket7append8Eh
 .text._ZN9OutPacket8append16Ej
                0x0001d01e       0x2c build/mighty_one-2560/MightyBoard/shared/Packet.o
                0x0001d01e                _ZN9OutPacket8append16Ej
 .text._ZN9OutPacket8append32Em
                0x0001d04a       0x5c build/mighty_one-2560/MightyBoard/shared/Packet.o
                0x0001d04a                _ZN9OutPacket8append32Em
 .text._ZN3PinC2Ev
                0x0001d0a6       0x1c build/mighty_one-2560/MightyBoard/shared/Pin.o
                0x0001d0a6                _ZN3PinC1Ev
                0x0001d0a6                _ZN3PinC2Ev
 .text._ZN3PinC2ERK7AvrPorth
                0x0001d0c2       0x34 build/mighty_one-2560/MightyBoard/shared/Pin.o
                0x0001d0c2                _ZN3PinC1ERK7AvrPorth
                0x0001d0c2                _ZN3PinC2ERK7AvrPorth
 .text._ZN3PinC2ERKS_
                0x0001d0f6       0x36 build/mighty_one-2560/MightyBoard/shared/Pin.o
                0x0001d0f6                _ZN3PinC1ERKS_
                0x0001d0f6                _ZN3PinC2ERKS_
 .text._ZNK3Pin12setDirectionEb
                0x0001d12c       0x28 build/mighty_one-2560/MightyBoard/shared/Pin.o
                0x0001d12c                _ZNK3Pin12setDirectionEb
 .text._ZNK3Pin8setValueEb
                0x0001d154       0x22 build/mighty_one-2560/MightyBoard/shared/Pin.o
                0x0001d154                _ZNK3Pin8setValueEb
 .text._ZNK3Pin8getValueEv
                0x0001d176       0x1e build/mighty_one-2560/MightyBoard/shared/Pin.o
                0x0001d176                _ZNK3Pin8getValueEv
 .text.startup._GLOBAL__sub_I__ZN3PinC2Ev
                0x0001d194       0x10 build/mighty_one-2560/MightyBoard/shared/Pin.o
 .text._ZN10Thermistor4initEv
                0x0001d1a4       0x1a build/mighty_one-2560/MightyBoard/shared/Thermistor.o
                0x0001d1a4                _ZN10Thermistor4initEv
 .text._ZN10ThermistorC2Eh
                0x0001d1be       0x10 build/mighty_one-2560/MightyBoard/shared/Thermistor.o
                0x0001d1be                _ZN10ThermistorC2Eh
                0x0001d1be                _ZN10ThermistorC1Eh
 .text._ZN10Thermistor17TempReadtoCelsiusEii
                0x0001d1ce      0x122 build/mighty_one-2560/MightyBoard/shared/Thermistor.o
                0x0001d1ce                _ZN10Thermistor17TempReadtoCelsiusEii
 .text._ZN10Thermistor6updateEv
                0x0001d2f0       0x86 build/mighty_one-2560/MightyBoard/shared/Thermistor.o
                0x0001d2f0                _ZN10Thermistor6updateEv
 .text.startup._GLOBAL__sub_I__ZN12ThermocoupleC2ERK3PinS2_S2_
                0x0001d376       0x10 build/mighty_one-2560/MightyBoard/shared/Thermocouple.o
 .text._ZN7TimeoutC2Ev
                0x0001d386        0x8 build/mighty_one-2560/MightyBoard/shared/Timeout.o
                0x0001d386                _ZN7TimeoutC1Ev
                0x0001d386                _ZN7TimeoutC2Ev
 .text._ZN7Timeout5startEm
                0x0001d38e       0x4c build/mighty_one-2560/MightyBoard/shared/Timeout.o
                0x0001d38e                _ZN7Timeout5startEm
 .text._ZN7Timeout10hasElapsedEv
                0x0001d3da       0x54 build/mighty_one-2560/MightyBoard/shared/Timeout.o
                0x0001d3da                _ZN7Timeout10hasElapsedEv
 .text._ZN7Timeout5abortEv
                0x0001d42e        0x6 build/mighty_one-2560/MightyBoard/shared/Timeout.o
                0x0001d42e                _ZN7Timeout5abortEv
 .text._ZN7Timeout5clearEv
                0x0001d434        0x6 build/mighty_one-2560/MightyBoard/shared/Timeout.o
                0x0001d434                _ZN7Timeout5clearEv
 .text._ZN7Timeout5pauseEb
                0x0001d43a       0x5e build/mighty_one-2560/MightyBoard/shared/Timeout.o
                0x0001d43a                _ZN7Timeout5pauseEb
 .text._ZN7Timeout17getCurrentElapsedEv
                0x0001d498       0x54 build/mighty_one-2560/MightyBoard/shared/Timeout.o
                0x0001d498                _ZN7Timeout17getCurrentElapsedEv
 .text.startup._GLOBAL__sub_I__ZN7TimeoutC2Ev
                0x0001d4ec       0x10 build/mighty_one-2560/MightyBoard/shared/Timeout.o
 .text._ZN4UART11init_serialEv
                0x0001d4fc       0x26 build/mighty_one-2560/MightyBoard/shared/UART.o
                0x0001d4fc                _ZN4UART11init_serialEv
 .text._ZN4UARTC2Eh18communication_mode
                0x0001d522       0x26 build/mighty_one-2560/MightyBoard/shared/UART.o
                0x0001d522                _ZN4UARTC1Eh18communication_mode
                0x0001d522                _ZN4UARTC2Eh18communication_mode
 .text._ZN4UART9beginSendEv
                0x0001d548       0x42 build/mighty_one-2560/MightyBoard/shared/UART.o
                0x0001d548                _ZN4UART9beginSendEv
 .text._ZN4UART6enableEb
                0x0001d58a       0x50 build/mighty_one-2560/MightyBoard/shared/UART.o
                0x0001d58a                _ZN4UART6enableEb
 .text.__vector_25
                0x0001d5da       0x58 build/mighty_one-2560/MightyBoard/shared/UART.o
                0x0001d5da                __vector_25
 .text.__vector_27
                0x0001d632       0x68 build/mighty_one-2560/MightyBoard/shared/UART.o
                0x0001d632                __vector_27
 .text.startup._GLOBAL__sub_I_loopback_bytes
                0x0001d69a       0x40 build/mighty_one-2560/MightyBoard/shared/UART.o
 .text.mulkD    0x0001d6da       0xfc build/mighty_one-2560/MightyBoard/Motherboard/avrfix/avrfix.o
                0x0001d6da                mulkD
 .text.divkD    0x0001d7d6      0x154 build/mighty_one-2560/MightyBoard/Motherboard/avrfix/avrfix.o
                0x0001d7d6                divkD
 .text.avr-libc.fplib
                0x0001d92a        0xa /home/jin/local/avr/lib/gcc/avr/4.6.3/../../../../avr/lib/avr6/libm.a(addsf3.o)
                0x0001d92a                __subsf3
                0x0001d92c                __addsf3
 .text.avr-libc.fplib
                0x0001d934       0xc0 /home/jin/local/avr/lib/gcc/avr/4.6.3/../../../../avr/lib/avr6/libm.a(addsf3x.o)
                0x0001d94e                __addsf3x
 .text.avr-libc.fplib
                0x0001d9f4       0x26 /home/jin/local/avr/lib/gcc/avr/4.6.3/../../../../avr/lib/avr6/libm.a(ceil.o)
                0x0001d9f4                ceil
 .text.avr-libc.fplib
                0x0001da1a        0x8 /home/jin/local/avr/lib/gcc/avr/4.6.3/../../../../avr/lib/avr6/libm.a(cmpsf2.o)
                0x0001da1a                __lesf2
                0x0001da1a                __nesf2
                0x0001da1a                __eqsf2
                0x0001da1a                __cmpsf2
                0x0001da1a                __ltsf2
 .text.avr-libc.fplib
                0x0001da22        0x4 /home/jin/local/avr/lib/gcc/avr/4.6.3/../../../../avr/lib/avr6/libm.a(divsf3.o)
                0x0001da22                __divsf3
 .text.avr-libc.fplib
                0x0001da26       0xcc /home/jin/local/avr/lib/gcc/avr/4.6.3/../../../../avr/lib/avr6/libm.a(divsf3x.o)
                0x0001da3c                __divsf3x
                0x0001da40                __divsf3_pse
 .text.avr-libc.fplib
                0x0001daf2       0x74 /home/jin/local/avr/lib/gcc/avr/4.6.3/../../../../avr/lib/avr6/libm.a(fixsfdi.o)
                0x0001daf2                __fixsfdi
                0x0001dafc                __fixunssfdi
 .text.avr-libc.fplib
                0x0001db66        0xa /home/jin/local/avr/lib/gcc/avr/4.6.3/../../../../avr/lib/avr6/libm.a(fixsfsi.o)
                0x0001db66                __fixsfsi
 .text.avr-libc.fplib
                0x0001db70       0x58 /home/jin/local/avr/lib/gcc/avr/4.6.3/../../../../avr/lib/avr6/libm.a(fixunssfsi.o)
                0x0001db70                __fixunssfsi
 .text.avr-libc.fplib
                0x0001dbc8       0x7a /home/jin/local/avr/lib/gcc/avr/4.6.3/../../../../avr/lib/avr6/libm.a(floatsisf.o)
                0x0001dbc8                __floatunsisf
                0x0001dbcc                __floatsisf
 .text.avr-libc.fplib
                0x0001dc42       0x48 /home/jin/local/avr/lib/gcc/avr/4.6.3/../../../../avr/lib/avr6/libm.a(fp_cmp.o)
                0x0001dc42                __fp_cmp
 .text.avr-libc.fplib
                0x0001dc8a        0xc /home/jin/local/avr/lib/gcc/avr/4.6.3/../../../../avr/lib/avr6/libm.a(fp_inf.o)
                0x0001dc8a                __fp_inf
 .text.avr-libc.fplib
                0x0001dc96       0x36 /home/jin/local/avr/lib/gcc/avr/4.6.3/../../../../avr/lib/avr6/libm.a(fp_mintl.o)
                0x0001dc96                __fp_mintl
 .text.avr-libc.fplib
                0x0001dccc       0x1c /home/jin/local/avr/lib/gcc/avr/4.6.3/../../../../avr/lib/avr6/libm.a(fp_mpack.o)
                0x0001dccc                __fp_mpack
                0x0001dcd0                __fp_mpack_finite
 .text.avr-libc.fplib
                0x0001dce8        0x6 /home/jin/local/avr/lib/gcc/avr/4.6.3/../../../../avr/lib/avr6/libm.a(fp_nan.o)
                0x0001dce8                __fp_nan
 .text.avr-libc.fplib
                0x0001dcee       0x20 /home/jin/local/avr/lib/gcc/avr/4.6.3/../../../../avr/lib/avr6/libm.a(fp_negdi.o)
                0x0001dcee                __fp_negdi
 .text.avr-libc.fplib
                0x0001dd0e        0xe /home/jin/local/avr/lib/gcc/avr/4.6.3/../../../../avr/lib/avr6/libm.a(fp_pscA.o)
                0x0001dd0e                __fp_pscA
 .text.avr-libc.fplib
                0x0001dd1c        0xe /home/jin/local/avr/lib/gcc/avr/4.6.3/../../../../avr/lib/avr6/libm.a(fp_pscB.o)
                0x0001dd1c                __fp_pscB
 .text.avr-libc.fplib
                0x0001dd2a       0x22 /home/jin/local/avr/lib/gcc/avr/4.6.3/../../../../avr/lib/avr6/libm.a(fp_round.o)
                0x0001dd2a                __fp_round
 .text.avr-libc.fplib
                0x0001dd4c       0x44 /home/jin/local/avr/lib/gcc/avr/4.6.3/../../../../avr/lib/avr6/libm.a(fp_split3.o)
                0x0001dd4c                __fp_split3
                0x0001dd5c                __fp_splitA
 .text.avr-libc.fplib
                0x0001dd90       0x2e /home/jin/local/avr/lib/gcc/avr/4.6.3/../../../../avr/lib/avr6/libm.a(fp_trunc.o)
                0x0001dd90                __fp_trunc
 .text.avr-libc.fplib
                0x0001ddbe        0xe /home/jin/local/avr/lib/gcc/avr/4.6.3/../../../../avr/lib/avr6/libm.a(fp_zero.o)
                0x0001ddbe                __fp_zero
                0x0001ddc0                __fp_szero
 .text.avr-libc.fplib
                0x0001ddcc        0x8 /home/jin/local/avr/lib/gcc/avr/4.6.3/../../../../avr/lib/avr6/libm.a(gesf2.o)
                0x0001ddcc                __gtsf2
                0x0001ddcc                __gesf2
 .text.avr-libc.fplib
                0x0001ddd4       0x8a /home/jin/local/avr/lib/gcc/avr/4.6.3/../../../../avr/lib/avr6/libm.a(log.o)
                0x0001ddde                log
 .text.avr-libc.fplib
                0x0001de5e        0x4 /home/jin/local/avr/lib/gcc/avr/4.6.3/../../../../avr/lib/avr6/libm.a(mulsf3.o)
                0x0001de5e                __mulsf3
 .text.avr-libc.fplib
                0x0001de62       0xc2 /home/jin/local/avr/lib/gcc/avr/4.6.3/../../../../avr/lib/avr6/libm.a(mulsf3x.o)
                0x0001de76                __mulsf3x
                0x0001de7a                __mulsf3_pse
 .text.avr-libc.fplib
                0x0001df24       0x84 /home/jin/local/avr/lib/gcc/avr/4.6.3/../../../../avr/lib/avr6/libm.a(sqrt.o)
                0x0001df2c                sqrt
 .text.avr-libc.fplib
                0x0001dfa8        0xe /home/jin/local/avr/lib/gcc/avr/4.6.3/../../../../avr/lib/avr6/libm.a(fp_norm2.o)
                0x0001dfa8                __fp_norm2
 .text.avr-libc.fplib
                0x0001dfb6       0x4a /home/jin/local/avr/lib/gcc/avr/4.6.3/../../../../avr/lib/avr6/libm.a(fp_powser.o)
                0x0001dfb6                __fp_powser
 .text.libgcc   0x0001e000       0x3e /home/jin/local/avr/lib/gcc/avr/4.6.3/avr6/libgcc.a(_mulsi3.o)
                0x0001e000                __mulsi3
 .text.libgcc   0x0001e03e       0x18 /home/jin/local/avr/lib/gcc/avr/4.6.3/avr6/libgcc.a(_udivmodqi4.o)
                0x0001e03e                __udivmodqi4
 .text.libgcc   0x0001e056       0x28 /home/jin/local/avr/lib/gcc/avr/4.6.3/avr6/libgcc.a(_udivmodhi4.o)
                0x0001e056                __udivmodhi4
 .text.libgcc   0x0001e07e       0x26 /home/jin/local/avr/lib/gcc/avr/4.6.3/avr6/libgcc.a(_divmodhi4.o)
                0x0001e07e                __divmodhi4
                0x0001e07e                _div
 .text.libgcc   0x0001e0a4       0x44 /home/jin/local/avr/lib/gcc/avr/4.6.3/avr6/libgcc.a(_udivmodsi4.o)
                0x0001e0a4                __udivmodsi4
 .text.libgcc   0x0001e0e8       0x36 /home/jin/local/avr/lib/gcc/avr/4.6.3/avr6/libgcc.a(_divmodsi4.o)
                0x0001e0e8                __divmodsi4
 .text.libgcc   0x0001e11e       0x38 /home/jin/local/avr/lib/gcc/avr/4.6.3/avr6/libgcc.a(_prologue.o)
                0x0001e11e                __prologue_saves__
 .text.libgcc   0x0001e156       0x36 /home/jin/local/avr/lib/gcc/avr/4.6.3/avr6/libgcc.a(_epilogue.o)
                0x0001e156                __epilogue_restores__
 .text.libgcc   0x0001e18c        0x8 /home/jin/local/avr/lib/gcc/avr/4.6.3/avr6/libgcc.a(_tablejump_elpm.o)
                0x0001e18c                __tablejump_elpm__
 .text.avr-libc
                0x0001e194       0x28 /home/jin/local/avr/lib/gcc/avr/4.6.3/../../../../avr/lib/avr6/libc.a(strlcpy_P.o)
                0x0001e194                strlcpy_P
 .text.avr-libc
                0x0001e1bc       0x12 /home/jin/local/avr/lib/gcc/avr/4.6.3/../../../../avr/lib/avr6/libc.a(memcpy.o)
                0x0001e1bc                memcpy
 .text.avr-libc
                0x0001e1ce        0xe /home/jin/local/avr/lib/gcc/avr/4.6.3/../../../../avr/lib/avr6/libc.a(memset.o)
                0x0001e1ce                memset
 .text.avr-libc
                0x0001e1dc       0x16 /home/jin/local/avr/lib/gcc/avr/4.6.3/../../../../avr/lib/avr6/libc.a(strchr.o)
                0x0001e1dc                strchr
 .text.avr-libc
                0x0001e1f2       0x12 /home/jin/local/avr/lib/gcc/avr/4.6.3/../../../../avr/lib/avr6/libc.a(strcmp.o)
                0x0001e1f2                strcmp
 .text.avr-libc
                0x0001e204       0x1c /home/jin/local/avr/lib/gcc/avr/4.6.3/../../../../avr/lib/avr6/libc.a(strncmp.o)
                0x0001e204                strncmp
 .text.avr-libc
                0x0001e220       0x16 /home/jin/local/avr/lib/gcc/avr/4.6.3/../../../../avr/lib/avr6/libc.a(strrchr.o)
                0x0001e220                strrchr
 .text.avr-libc
                0x0001e236       0x20 /home/jin/local/avr/lib/gcc/avr/4.6.3/../../../../avr/lib/avr6/libc.a(eerd_block_atmega2560.o)
                0x0001e236                __eerd_block_m2560
                0x0001e23a                __eerd_blraw_m2560
 .text.avr-libc
                0x0001e256        0xc /home/jin/local/avr/lib/gcc/avr/4.6.3/../../../../avr/lib/avr6/libc.a(eerd_dword_atmega2560.o)
                0x0001e256                __eerd_dword_m2560
                0x0001e256                __eerd_float_m2560
 .text.avr-libc
                0x0001e262       0x14 /home/jin/local/avr/lib/gcc/avr/4.6.3/../../../../avr/lib/avr6/libc.a(eewr_block_atmega2560.o)
                0x0001e262                __eewr_block_m2560
 .text.avr-libc
                0x0001e276       0x1c /home/jin/local/avr/lib/gcc/avr/4.6.3/../../../../avr/lib/avr6/libc.a(eewr_byte_atmega2560.o)
                0x0001e276                __eewr_byte_m2560
                0x0001e278                __eewr_r18_m2560
 .text.avr-libc
                0x0001e292       0x10 /home/jin/local/avr/lib/gcc/avr/4.6.3/../../../../avr/lib/avr6/libc.a(eewr_dword_atmega2560.o)
                0x0001e292                __eewr_dword_m2560
                0x0001e292                __eewr_float_m2560
 .text.avr-libc
                0x0001e2a2        0xa /home/jin/local/avr/lib/gcc/avr/4.6.3/../../../../avr/lib/avr6/libc.a(eewr_word_atmega2560.o)
                0x0001e2a2                __eewr_word_m2560
                0x0001e2ac                . = ALIGN (0x2)
 *(.fini9)
 .fini9         0x0001e2ac        0x0 /home/jin/local/avr/lib/gcc/avr/4.6.3/avr6/libgcc.a(_exit.o)
                0x0001e2ac                exit
                0x0001e2ac                _exit
 *(.fini9)
 *(.fini8)
 *(.fini8)
 *(.fini7)
 *(.fini7)
 *(.fini6)
 *(.fini6)
 *(.fini5)
 *(.fini5)
 *(.fini4)
 *(.fini4)
 *(.fini3)
 *(.fini3)
 *(.fini2)
 *(.fini2)
 *(.fini1)
 *(.fini1)
 *(.fini0)
 .fini0         0x0001e2ac        0x4 /home/jin/local/avr/lib/gcc/avr/4.6.3/avr6/libgcc.a(_exit.o)
 *(.fini0)
                0x0001e2b0                _etext = .

.data           0x00800200      0x3d4 load address 0x0001e2b0
                0x00800200                PROVIDE (__data_start, .)
 *(.data)
 .data          0x00800200       0x4b build/mighty_one-2560/MightyBoard/Motherboard/EepromMap.o
 .data          0x0080024b        0x2 build/mighty_one-2560/MightyBoard/Motherboard/SDCard.o
 .data          0x0080024d        0xd build/mighty_one-2560/MightyBoard/Motherboard/lib_sd/fat.o
 .data          0x0080025a      0x100 /home/jin/local/avr/lib/gcc/avr/4.6.3/avr6/libgcc.a(_clz.o)
                0x0080025a                __clz_tab
 *(.data*)
 .data._ZN7command14deleteAfterUseE
                0x0080035a        0x1 build/mighty_one-2560/MightyBoard/Motherboard/Command.o
                0x0080035a                _ZN7command14deleteAfterUseE
 .data._ZN7command15buildPercentageE
                0x0080035b        0x1 build/mighty_one-2560/MightyBoard/Motherboard/Command.o
                0x0080035b                _ZN7command15buildPercentageE
 .data._ZN6sdcard11sdAvailableE
                0x0080035c        0x1 build/mighty_one-2560/MightyBoard/Motherboard/SDCard.o
                0x0080035c                _ZN6sdcard11sdAvailableE
 .data._ZN6sdcard10mustReinitE
                0x0080035d        0x1 build/mighty_one-2560/MightyBoard/Motherboard/SDCard.o
                0x0080035d                _ZN6sdcard10mustReinitE
 .data._ZL11skew_zdelta
                0x0080035e        0x4 build/mighty_one-2560/MightyBoard/Motherboard/SkewTilt.o
 .data.acceleration_zhold
                0x00800362        0x1 build/mighty_one-2560/MightyBoard/Motherboard/StepperAccelPlanner.o
                0x00800362                acceleration_zhold
 .data.disable_slowdown
                0x00800363        0x1 build/mighty_one-2560/MightyBoard/Motherboard/StepperAccelPlanner.o
                0x00800363                disable_slowdown
 .data.stepperAxisPorts
                0x00800364       0xaf build/mighty_one-2560/MightyBoard/Motherboard/StepperAxis.o
                0x00800364                stepperAxisPorts
 .data._ZN8steppers12accelerationE
                0x00800413        0x1 build/mighty_one-2560/MightyBoard/Motherboard/Steppers.o
                0x00800413                _ZN8steppers12accelerationE
 .data._ZN8steppers11speedFactorE
                0x00800414        0x4 build/mighty_one-2560/MightyBoard/Motherboard/Steppers.o
                0x00800414                _ZN8steppers11speedFactorE
 .data._ZN8steppersL17segmentAccelStateE
                0x00800418        0x1 build/mighty_one-2560/MightyBoard/Motherboard/Steppers.o
 .data._ZN7RGB_LED10LEDEnabledE
                0x00800419        0x1 build/mighty_one-2560/MightyBoard/Motherboard/boards/mighty_one/RGB_LED.o
                0x00800419                _ZN7RGB_LED10LEDEnabledE
 .data._ZL8Language
                0x0080041a        0x1 build/mighty_one-2560/MightyBoard/shared/Menu.o
 .data._ZL6hasHBP
                0x0080041b        0x1 build/mighty_one-2560/MightyBoard/shared/Menu.o
 .data._ZL13lastFileIndex
                0x0080041c        0x1 build/mighty_one-2560/MightyBoard/shared/Menu.o
 *(.rodata)
 *(.rodata*)
 .rodata.CSWTCH.199
                0x0080041d        0x9 build/mighty_one-2560/MightyBoard/Motherboard/Command.o
 .rodata._ZN23replicator_axis_lengthsL12axis_lengthsE
                0x00800426       0x14 build/mighty_one-2560/MightyBoard/Motherboard/EepromMap.o
 .rodata._ZN28replicator_axis_steps_per_mmL17axis_steps_per_mmE
                0x0080043a       0x14 build/mighty_one-2560/MightyBoard/Motherboard/EepromMap.o
 .rodata._ZN29replicator_axis_max_feedratesL18axis_max_feedratesE
                0x0080044e       0x14 build/mighty_one-2560/MightyBoard/Motherboard/EepromMap.o
 .rodata._ZTV27BuildPlatformHeatingElement
                0x00800462        0x6 build/mighty_one-2560/MightyBoard/Motherboard/Motherboard.o
                0x00800462                _ZTV27BuildPlatformHeatingElement
 .rodata.CSWTCH.12
                0x00800468       0x12 build/mighty_one-2560/MightyBoard/Motherboard/Piezo.o
 .rodata._ZN28replicator_axis_steps_per_mmL17axis_steps_per_mmE
                0x0080047a       0x14 build/mighty_one-2560/MightyBoard/Motherboard/StepperAxis.o
 .rodata._ZN29replicator_axis_max_feedratesL18axis_max_feedratesE
                0x0080048e       0x14 build/mighty_one-2560/MightyBoard/Motherboard/StepperAxis.o
 .rodata._ZN23replicator_axis_lengthsL12axis_lengthsE
                0x008004a2       0x14 build/mighty_one-2560/MightyBoard/Motherboard/StepperAxis.o
 .rodata._ZTV22ExtruderHeatingElement
                0x008004b6        0x6 build/mighty_one-2560/MightyBoard/Motherboard/boards/mighty_one/ExtruderBoard.o
                0x008004b6                _ZTV22ExtruderHeatingElement
 .rodata._ZTV19LiquidCrystalSerial
                0x008004bc        0x6 build/mighty_one-2560/MightyBoard/shared/LiquidCrystalSerial.o
                0x008004bc                _ZTV19LiquidCrystalSerial
 .rodata._ZTV12SplashScreen
                0x008004c2        0xc build/mighty_one-2560/MightyBoard/shared/Menu.o
                0x008004c2                _ZTV12SplashScreen
 .rodata._ZTV14FilamentScreen
                0x008004ce        0xc build/mighty_one-2560/MightyBoard/shared/Menu.o
                0x008004ce                _ZTV14FilamentScreen
 .rodata._ZTV12FilamentMenu
                0x008004da       0x12 build/mighty_one-2560/MightyBoard/shared/Menu.o
                0x008004da                _ZTV12FilamentMenu
 .rodata._ZTV13MessageScreen
                0x008004ec        0xc build/mighty_one-2560/MightyBoard/shared/Menu.o
                0x008004ec                _ZTV13MessageScreen
 .rodata._ZTV13JogModeScreen
                0x008004f8        0xc build/mighty_one-2560/MightyBoard/shared/Menu.o
                0x008004f8                _ZTV13JogModeScreen
 .rodata._ZTV17MonitorModeScreen
                0x00800504        0xc build/mighty_one-2560/MightyBoard/shared/Menu.o
                0x00800504                _ZTV17MonitorModeScreen
 .rodata._ZTV17ResetSettingsMenu
                0x00800510       0x12 build/mighty_one-2560/MightyBoard/shared/Menu.o
                0x00800510                _ZTV17ResetSettingsMenu
 .rodata._ZTV12LanguageMenu
                0x00800522       0x12 build/mighty_one-2560/MightyBoard/shared/Menu.o
                0x00800522                _ZTV12LanguageMenu
 .rodata._ZTV21HomeOffsetsModeScreen
                0x00800534        0xc build/mighty_one-2560/MightyBoard/shared/Menu.o
                0x00800534                _ZTV21HomeOffsetsModeScreen
 .rodata._ZTV17ChangeSpeedScreen
                0x00800540        0xc build/mighty_one-2560/MightyBoard/shared/Menu.o
                0x00800540                _ZTV17ChangeSpeedScreen
 .rodata._ZTV16ChangeTempScreen
                0x0080054c        0xc build/mighty_one-2560/MightyBoard/shared/Menu.o
                0x0080054c                _ZTV16ChangeTempScreen
 .rodata._ZTV15ActiveBuildMenu
                0x00800558       0x12 build/mighty_one-2560/MightyBoard/shared/Menu.o
                0x00800558                _ZTV15ActiveBuildMenu
 .rodata._ZTV15CancelBuildMenu
                0x0080056a       0x12 build/mighty_one-2560/MightyBoard/shared/Menu.o
                0x0080056a                _ZTV15CancelBuildMenu
 .rodata._ZTV8MainMenu
                0x0080057c       0x12 build/mighty_one-2560/MightyBoard/shared/Menu.o
                0x0080057c                _ZTV8MainMenu
 .rodata._ZTV12SettingsMenu
                0x0080058e       0x12 build/mighty_one-2560/MightyBoard/shared/Menu.o
                0x0080058e                _ZTV12SettingsMenu
 .rodata._ZTV17FinishedPrintMenu
                0x008005a0       0x12 build/mighty_one-2560/MightyBoard/shared/Menu.o
                0x008005a0                _ZTV17FinishedPrintMenu
 .rodata._ZTV6SDMenu
                0x008005b2       0x12 build/mighty_one-2560/MightyBoard/shared/Menu.o
                0x008005b2                _ZTV6SDMenu
 .rodata.CSWTCH.160
                0x008005c4        0x8 build/mighty_one-2560/MightyBoard/shared/Menu.o
 .rodata._ZTV10Thermistor
                0x008005cc        0x8 build/mighty_one-2560/MightyBoard/shared/Thermistor.o
                0x008005cc                _ZTV10Thermistor
 *(.gnu.linkonce.d*)
                0x008005d4                . = ALIGN (0x2)
                0x008005d4                _edata = .
                0x008005d4                PROVIDE (__data_end, .)

.bss            0x008005d4     0x162e
                0x008005d4                PROVIDE (__bss_start, .)
 *(.bss)
 *(.bss*)
 .bss._ZN7command23button_timeout_behaviorE
                0x008005d4        0x1 build/mighty_one-2560/MightyBoard/Motherboard/Command.o
                0x008005d4                _ZN7command23button_timeout_behaviorE
 .bss._ZN7command11button_maskE
                0x008005d5        0x1 build/mighty_one-2560/MightyBoard/Motherboard/Command.o
                0x008005d5                _ZN7command11button_maskE
 .bss._ZN7command19button_wait_timeoutE
                0x008005d6        0xf build/mighty_one-2560/MightyBoard/Motherboard/Command.o
                0x008005d6                _ZN7command19button_wait_timeoutE
 .bss._ZN7command17tool_wait_timeoutE
                0x008005e5        0xf build/mighty_one-2560/MightyBoard/Motherboard/Command.o
                0x008005e5                _ZN7command17tool_wait_timeoutE
 .bss._ZN7command14homing_timeoutE
                0x008005f4        0xf build/mighty_one-2560/MightyBoard/Motherboard/Command.o
                0x008005f4                _ZN7command14homing_timeoutE
 .bss._ZN7command13delay_timeoutE
                0x00800603        0xf build/mighty_one-2560/MightyBoard/Motherboard/Command.o
                0x00800603                _ZN7command13delay_timeoutE
 .bss._ZN7command4modeE
                0x00800612        0x1 build/mighty_one-2560/MightyBoard/Motherboard/Command.o
                0x00800612                _ZN7command4modeE
 .bss._ZN7command7altTempE
                0x00800613        0x4 build/mighty_one-2560/MightyBoard/Motherboard/Command.o
                0x00800613                _ZN7command7altTempE
 .bss._ZN7command13dittoPrintingE
                0x00800617        0x1 build/mighty_one-2560/MightyBoard/Motherboard/Command.o
                0x00800617                _ZN7command13dittoPrintingE
 .bss._ZN7command29elapsedSecondsSinceBuildStartE
                0x00800618        0x4 build/mighty_one-2560/MightyBoard/Motherboard/Command.o
                0x00800618                _ZN7command29elapsedSecondsSinceBuildStartE
 .bss._ZN7command27startingBuildTimePercentageE
                0x0080061c        0x1 build/mighty_one-2560/MightyBoard/Motherboard/Command.o
                0x0080061c                _ZN7command27startingBuildTimePercentageE
 .bss._ZN7command24startingBuildTimeSecondsE
                0x0080061d        0x4 build/mighty_one-2560/MightyBoard/Motherboard/Command.o
                0x0080061d                _ZN7command24startingBuildTimeSecondsE
 .bss._ZN7command14pausedFanStateE
                0x00800621        0x1 build/mighty_one-2560/MightyBoard/Motherboard/Command.o
                0x00800621                _ZN7command14pausedFanStateE
 .bss._ZN7command14pausedDigiPotsE
                0x00800622        0x5 build/mighty_one-2560/MightyBoard/Motherboard/Command.o
                0x00800622                _ZN7command14pausedDigiPotsE
 .bss._ZN7command18pausedExtruderTempE
                0x00800627        0x4 build/mighty_one-2560/MightyBoard/Motherboard/Command.o
                0x00800627                _ZN7command18pausedExtruderTempE
 .bss._ZN7command18pausedPlatformTempE
                0x0080062b        0x2 build/mighty_one-2560/MightyBoard/Motherboard/Command.o
                0x0080062b                _ZN7command18pausedPlatformTempE
 .bss._ZN7command14pauseUnRetractE
                0x0080062d        0x1 build/mighty_one-2560/MightyBoard/Motherboard/Command.o
                0x0080062d                _ZN7command14pauseUnRetractE
 .bss._ZN7command18lastFilamentLengthE
                0x0080062e       0x10 build/mighty_one-2560/MightyBoard/Motherboard/Command.o
                0x0080062e                _ZN7command18lastFilamentLengthE
 .bss._ZN7command14filamentLengthE
                0x0080063e       0x10 build/mighty_one-2560/MightyBoard/Motherboard/Command.o
                0x0080063e                _ZN7command14filamentLengthE
 .bss._ZN7command20pauseAtZPosActivatedE
                0x0080064e        0x1 build/mighty_one-2560/MightyBoard/Motherboard/Command.o
                0x0080064e                _ZN7command20pauseAtZPosActivatedE
 .bss._ZN7command9pauseZPosE
                0x0080064f        0x4 build/mighty_one-2560/MightyBoard/Motherboard/Command.o
                0x0080064f                _ZN7command9pauseZPosE
 .bss._ZN7command13heat_shutdownE
                0x00800653        0x1 build/mighty_one-2560/MightyBoard/Motherboard/Command.o
                0x00800653                _ZN7command13heat_shutdownE
 .bss._ZN7command6pausedE
                0x00800654        0x1 build/mighty_one-2560/MightyBoard/Motherboard/Command.o
                0x00800654                _ZN7command6pausedE
 .bss._ZN7command16check_temp_stateE
                0x00800655        0x1 build/mighty_one-2560/MightyBoard/Motherboard/Command.o
                0x00800655                _ZN7command16check_temp_stateE
 .bss._ZN7command16currentToolIndexE
                0x00800656        0x1 build/mighty_one-2560/MightyBoard/Motherboard/Command.o
                0x00800656                _ZN7command16currentToolIndexE
 .bss._ZN7command14command_bufferE
                0x00800657        0xa build/mighty_one-2560/MightyBoard/Motherboard/Command.o
                0x00800657                _ZN7command14command_bufferE
 .bss._ZN7command11buffer_dataE
                0x00800661      0x200 build/mighty_one-2560/MightyBoard/Motherboard/Command.o
                0x00800661                _ZN7command11buffer_dataE
 .bss._ZN7command16pstop_move_countE
                0x00800861        0x1 build/mighty_one-2560/MightyBoard/Motherboard/Command.o
                0x00800861                _ZN7command16pstop_move_countE
 .bss._ZN7command10pstop_okayE
                0x00800862        0x1 build/mighty_one-2560/MightyBoard/Motherboard/Command.o
                0x00800862                _ZN7command10pstop_okayE
 .bss._ZN7command15pstop_triggeredE
                0x00800863        0x1 build/mighty_one-2560/MightyBoard/Motherboard/Command.o
                0x00800863                _ZN7command15pstop_triggeredE
 .bss._ZN7commandL12alevel_stateE
                0x00800864        0x1 build/mighty_one-2560/MightyBoard/Motherboard/Command.o
 .bss._ZN7commandL9coldPauseE
                0x00800865        0x1 build/mighty_one-2560/MightyBoard/Motherboard/Command.o
 .bss._ZN7commandL11sdCardErrorE
                0x00800866        0x1 build/mighty_one-2560/MightyBoard/Motherboard/Command.o
 .bss._ZN7commandL17pauseErrorMessageE
                0x00800867        0x2 build/mighty_one-2560/MightyBoard/Motherboard/Command.o
 .bss._ZN7commandL20lastFilamentPositionE
                0x00800869        0x8 build/mighty_one-2560/MightyBoard/Motherboard/Command.o
 .bss._ZN7commandL14pausedPositionE
                0x00800871       0x14 build/mighty_one-2560/MightyBoard/Motherboard/Command.o
 .bss._ZL7NullPin
                0x00800885        0x6 build/mighty_one-2560/MightyBoard/Motherboard/Command.o
 .bss._ZL7NullPin
                0x0080088b        0x6 build/mighty_one-2560/MightyBoard/Motherboard/EepromMap.o
 .bss._ZN4host11cancelBuildE
                0x00800891        0x1 build/mighty_one-2560/MightyBoard/Motherboard/Host.o
                0x00800891                _ZN4host11cancelBuildE
 .bss._ZN4host10hard_resetE
                0x00800892        0x1 build/mighty_one-2560/MightyBoard/Motherboard/Host.o
                0x00800892                _ZN4host10hard_resetE
 .bss._ZN4host13do_host_resetE
                0x00800893        0x1 build/mighty_one-2560/MightyBoard/Motherboard/Host.o
                0x00800893                _ZN4host13do_host_resetE
 .bss._ZN4host10print_timeE
                0x00800894        0xf build/mighty_one-2560/MightyBoard/Motherboard/Host.o
                0x00800894                _ZN4host10print_timeE
 .bss._ZN4host16print_time_hoursE
                0x008008a3        0x1 build/mighty_one-2560/MightyBoard/Motherboard/Host.o
                0x008008a3                _ZN4host16print_time_hoursE
 .bss._ZN4host18last_print_minutesE
                0x008008a4        0x1 build/mighty_one-2560/MightyBoard/Motherboard/Host.o
                0x008008a4                _ZN4host18last_print_minutesE
 .bss._ZN4host16last_print_hoursE
                0x008008a5        0x1 build/mighty_one-2560/MightyBoard/Motherboard/Host.o
                0x008008a5                _ZN4host16last_print_hoursE
 .bss._ZN4host10buildStateE
                0x008008a6        0x1 build/mighty_one-2560/MightyBoard/Motherboard/Host.o
                0x008008a6                _ZN4host10buildStateE
 .bss._ZN4host12currentStateE
                0x008008a7        0x1 build/mighty_one-2560/MightyBoard/Motherboard/Host.o
                0x008008a7                _ZN4host12currentStateE
 .bss._ZN4host9buildNameE
                0x008008a8       0x1f build/mighty_one-2560/MightyBoard/Motherboard/Host.o
                0x008008a8                _ZN4host9buildNameE
 .bss._ZN4host11machineNameE
                0x008008c7       0x11 build/mighty_one-2560/MightyBoard/Motherboard/Host.o
                0x008008c7                _ZN4host11machineNameE
 .bss._ZN4host17buildWasCancelledE
                0x008008d8        0x1 build/mighty_one-2560/MightyBoard/Motherboard/Host.o
                0x008008d8                _ZN4host17buildWasCancelledE
 .bss._ZN4host21do_host_reset_timeoutE
                0x008008d9        0xf build/mighty_one-2560/MightyBoard/Motherboard/Host.o
                0x008008d9                _ZN4host21do_host_reset_timeoutE
 .bss._ZN4host14cancel_timeoutE
                0x008008e8        0xf build/mighty_one-2560/MightyBoard/Motherboard/Host.o
                0x008008e8                _ZN4host14cancel_timeoutE
 .bss._ZN4host17packet_in_timeoutE
                0x008008f7        0xf build/mighty_one-2560/MightyBoard/Motherboard/Host.o
                0x008008f7                _ZN4host17packet_in_timeoutE
 .bss._ZL7NullPin
                0x00800906        0x6 build/mighty_one-2560/MightyBoard/Motherboard/Host.o
 .bss._ZL7NullPin
                0x0080090c        0x6 build/mighty_one-2560/MightyBoard/Motherboard/Main.o
 .bss.blink_overflow_counter
                0x00800912        0x1 build/mighty_one-2560/MightyBoard/Motherboard/Motherboard.o
                0x00800912                blink_overflow_counter
 .bss.interface_ovfs_remaining
                0x00800913        0x1 build/mighty_one-2560/MightyBoard/Motherboard/Motherboard.o
                0x00800913                interface_ovfs_remaining
 .bss.interface_off_time
                0x00800914        0x1 build/mighty_one-2560/MightyBoard/Motherboard/Motherboard.o
                0x00800914                interface_off_time
 .bss.interface_on_time
                0x00800915        0x1 build/mighty_one-2560/MightyBoard/Motherboard/Motherboard.o
                0x00800915                interface_on_time
 .bss.extruder_update
                0x00800916        0x1 build/mighty_one-2560/MightyBoard/Motherboard/Motherboard.o
                0x00800916                extruder_update
 .bss.triggered
                0x00800917        0x1 build/mighty_one-2560/MightyBoard/Motherboard/Motherboard.o
                0x00800917                triggered
 .bss.connectionsErrorTriggered
                0x00800918        0x1 build/mighty_one-2560/MightyBoard/Motherboard/Motherboard.o
                0x00800918                connectionsErrorTriggered
 .bss._ZN11Motherboard11motherboardE
                0x00800919      0x323 build/mighty_one-2560/MightyBoard/Motherboard/Motherboard.o
                0x00800919                _ZN11Motherboard11motherboardE
 .bss.board_status
                0x00800c3c        0x1 build/mighty_one-2560/MightyBoard/Motherboard/Motherboard.o
                0x00800c3c                board_status
 .bss._ZL6micros
                0x00800c3d        0x4 build/mighty_one-2560/MightyBoard/Motherboard/Motherboard.o
 .bss._ZL21heating_lights_active
                0x00800c41        0x1 build/mighty_one-2560/MightyBoard/Motherboard/Motherboard.o
 .bss._ZL21interface_blink_state
                0x00800c42        0x1 build/mighty_one-2560/MightyBoard/Motherboard/Motherboard.o
 .bss._ZL7NullPin
                0x00800c43        0x6 build/mighty_one-2560/MightyBoard/Motherboard/Motherboard.o
 .bss._ZN5Piezo5tonesE
                0x00800c49        0xa build/mighty_one-2560/MightyBoard/Motherboard/Piezo.o
                0x00800c49                _ZN5Piezo5tonesE
 .bss._ZN5Piezo9tones_bufE
                0x00800c53       0x50 build/mighty_one-2560/MightyBoard/Motherboard/Piezo.o
                0x00800c53                _ZN5Piezo9tones_bufE
 .bss._ZN5PiezoL12soundEnabledE
                0x00800ca3        0x1 build/mighty_one-2560/MightyBoard/Motherboard/Piezo.o
 .bss._ZN5PiezoL12piezoTimeoutE
                0x00800ca4        0xf build/mighty_one-2560/MightyBoard/Motherboard/Piezo.o
 .bss._ZN5PiezoL7playingE
                0x00800cb3        0x1 build/mighty_one-2560/MightyBoard/Motherboard/Piezo.o
 .bss._ZL7NullPin
                0x00800cb4        0x6 build/mighty_one-2560/MightyBoard/Motherboard/Piezo.o
 .bss._ZN6sdcard7sdErrnoE
                0x00800cba        0x1 build/mighty_one-2560/MightyBoard/Motherboard/SDCard.o
                0x00800cba                _ZN6sdcard7sdErrnoE
 .bss._ZN6sdcardL3cwdE
                0x00800cbb        0x2 build/mighty_one-2560/MightyBoard/Motherboard/SDCard.o
 .bss._ZN6sdcardL9partitionE
                0x00800cbd        0x2 build/mighty_one-2560/MightyBoard/Motherboard/SDCard.o
 .bss._ZN6sdcardL2fsE
                0x00800cbf        0x2 build/mighty_one-2560/MightyBoard/Motherboard/SDCard.o
 .bss._ZN6sdcardL7playingE
                0x00800cc1        0x1 build/mighty_one-2560/MightyBoard/Motherboard/SDCard.o
 .bss._ZN6sdcardL9capturingE
                0x00800cc2        0x1 build/mighty_one-2560/MightyBoard/Motherboard/SDCard.o
 .bss._ZN6sdcardL13capturedBytesE
                0x00800cc3        0x4 build/mighty_one-2560/MightyBoard/Motherboard/SDCard.o
 .bss._ZN6sdcardL4fileE
                0x00800cc7        0x2 build/mighty_one-2560/MightyBoard/Motherboard/SDCard.o
 .bss._ZN6sdcardL9next_byteE
                0x00800cc9        0x1 build/mighty_one-2560/MightyBoard/Motherboard/SDCard.o
 .bss._ZN6sdcardL8has_moreE
                0x00800cca        0x1 build/mighty_one-2560/MightyBoard/Motherboard/SDCard.o
 .bss._ZL7NullPin
                0x00800ccb        0x6 build/mighty_one-2560/MightyBoard/Motherboard/SDCard.o
 .bss.skew_active
                0x00800cd1        0x1 build/mighty_one-2560/MightyBoard/Motherboard/SkewTilt.o
                0x00800cd1                skew_active
 .bss._ZL11skew_dvalue
                0x00800cd2        0x4 build/mighty_one-2560/MightyBoard/Motherboard/SkewTilt.o
 .bss._ZL9skew_data
                0x00800cd6        0xc build/mighty_one-2560/MightyBoard/Motherboard/SkewTilt.o
 .bss._ZL9reference
                0x00800ce2        0xc build/mighty_one-2560/MightyBoard/Motherboard/SkewTilt.o
 .bss._ZN14SoftI2cManager10i2cManagerE
                0x00800cee       0x25 build/mighty_one-2560/MightyBoard/Motherboard/SoftI2cManager.o
                0x00800cee                _ZN14SoftI2cManager10i2cManagerE
 .bss._ZL7NullPin
                0x00800d13        0x6 build/mighty_one-2560/MightyBoard/Motherboard/SoftI2cManager.o
 .bss._ZL21step_events_completed
                0x00800d19        0x4 build/mighty_one-2560/MightyBoard/Motherboard/StepperAccel.o
 .bss.extruder_only_max_feedrate
                0x00800d1d        0x8 build/mighty_one-2560/MightyBoard/Motherboard/StepperAccel.o
                0x00800d1d                extruder_only_max_feedrate
 .bss.extrude_when_negative
                0x00800d25        0x2 build/mighty_one-2560/MightyBoard/Motherboard/StepperAccel.o
                0x00800d25                extrude_when_negative
 .bss.extruder_deprime_steps
                0x00800d27        0x4 build/mighty_one-2560/MightyBoard/Motherboard/StepperAccel.o
                0x00800d27                extruder_deprime_steps
 .bss.extruder_deprime_travel
                0x00800d2b        0x1 build/mighty_one-2560/MightyBoard/Motherboard/StepperAccel.o
                0x00800d2b                extruder_deprime_travel
 .bss.current_block
                0x00800d2c        0x2 build/mighty_one-2560/MightyBoard/Motherboard/StepperAccel.o
                0x00800d2c                current_block
 .bss._ZL20last_active_toolhead
                0x00800d2e        0x1 build/mighty_one-2560/MightyBoard/Motherboard/StepperAccel.o
 .bss._ZL15deprime_enabled
                0x00800d2f        0x1 build/mighty_one-2560/MightyBoard/Motherboard/StepperAccel.o
 .bss._ZL8deprimed
                0x00800d30        0x2 build/mighty_one-2560/MightyBoard/Motherboard/StepperAccel.o
 .bss._ZL17deceleration_time
                0x00800d32        0x4 build/mighty_one-2560/MightyBoard/Motherboard/StepperAccel.o
 .bss._ZL10step_loops
                0x00800d36        0x1 build/mighty_one-2560/MightyBoard/Motherboard/StepperAccel.o
 .bss._ZL13OCRnA_nominal
                0x00800d37        0x2 build/mighty_one-2560/MightyBoard/Motherboard/StepperAccel.o
 .bss._ZL18step_loops_nominal
                0x00800d39        0x1 build/mighty_one-2560/MightyBoard/Motherboard/StepperAccel.o
 .bss._ZL13acc_step_rate
                0x00800d3a        0x2 build/mighty_one-2560/MightyBoard/Motherboard/StepperAccel.o
 .bss._ZL17acceleration_time
                0x00800d3c        0x4 build/mighty_one-2560/MightyBoard/Motherboard/StepperAccel.o
 .bss._ZL8out_bits
                0x00800d40        0x1 build/mighty_one-2560/MightyBoard/Motherboard/StepperAccel.o
 .bss._ZL13advance_state
                0x00800d41        0x1 build/mighty_one-2560/MightyBoard/Motherboard/StepperAccel.o
 .bss._ZL34advance_pressure_relax_accumulator
                0x00800d42        0x4 build/mighty_one-2560/MightyBoard/Motherboard/StepperAccel.o
 .bss._ZL9step_rate
                0x00800d46        0x2 build/mighty_one-2560/MightyBoard/Motherboard/StepperAccel.o
 .bss._ZL34st_extruder_interrupt_rate_counter
                0x00800d48        0x2 build/mighty_one-2560/MightyBoard/Motherboard/StepperAccel.o
 .bss._ZL26st_extruder_interrupt_rate
                0x00800d4a        0x2 build/mighty_one-2560/MightyBoard/Motherboard/StepperAccel.o
 .bss._ZL33extruder_interrupt_steps_per_call
                0x00800d4c        0x2 build/mighty_one-2560/MightyBoard/Motherboard/StepperAccel.o
 .bss._ZL7NullPin
                0x00800d4e        0x6 build/mighty_one-2560/MightyBoard/Motherboard/StepperAccel.o
 .bss.block_buffer_tail
                0x00800d54        0x1 build/mighty_one-2560/MightyBoard/Motherboard/StepperAccelPlanner.o
                0x00800d54                block_buffer_tail
 .bss.block_buffer_head
                0x00800d55        0x1 build/mighty_one-2560/MightyBoard/Motherboard/StepperAccelPlanner.o
                0x00800d55                block_buffer_head
 .bss.block_buffer
                0x00800d56      0x770 build/mighty_one-2560/MightyBoard/Motherboard/StepperAccelPlanner.o
                0x00800d56                block_buffer
 .bss.planner_target
                0x008014c6       0x14 build/mighty_one-2560/MightyBoard/Motherboard/StepperAccelPlanner.o
                0x008014c6                planner_target
 .bss.planner_position
                0x008014da       0x14 build/mighty_one-2560/MightyBoard/Motherboard/StepperAccelPlanner.o
                0x008014da                planner_position
 .bss.minimumSegmentTime
                0x008014ee        0x4 build/mighty_one-2560/MightyBoard/Motherboard/StepperAccelPlanner.o
                0x008014ee                minimumSegmentTime
 .bss.axis_accel_step_cutoff
                0x008014f2       0x14 build/mighty_one-2560/MightyBoard/Motherboard/StepperAccelPlanner.o
                0x008014f2                axis_accel_step_cutoff
 .bss.vmax_junction
                0x00801506        0x4 build/mighty_one-2560/MightyBoard/Motherboard/StepperAccelPlanner.o
                0x00801506                vmax_junction
 .bss.planner_steps
                0x0080150a       0x14 build/mighty_one-2560/MightyBoard/Motherboard/StepperAccelPlanner.o
                0x0080150a                planner_steps
 .bss.planner_master_steps_index
                0x0080151e        0x1 build/mighty_one-2560/MightyBoard/Motherboard/StepperAccelPlanner.o
                0x0080151e                planner_master_steps_index
 .bss.planner_master_steps
                0x0080151f        0x4 build/mighty_one-2560/MightyBoard/Motherboard/StepperAccelPlanner.o
                0x0080151f                planner_master_steps
 .bss.planner_distance
                0x00801523        0x4 build/mighty_one-2560/MightyBoard/Motherboard/StepperAccelPlanner.o
                0x00801523                planner_distance
 .bss.delta_mm  0x00801527       0x14 build/mighty_one-2560/MightyBoard/Motherboard/StepperAccelPlanner.o
                0x00801527                delta_mm
 .bss.planner_axes
                0x0080153b        0x1 build/mighty_one-2560/MightyBoard/Motherboard/StepperAccelPlanner.o
                0x0080153b                planner_axes
 .bss.extruder_advance_k2
                0x0080153c        0x4 build/mighty_one-2560/MightyBoard/Motherboard/StepperAccelPlanner.o
                0x0080153c                extruder_advance_k2
 .bss.extruder_advance_k
                0x00801540        0x4 build/mighty_one-2560/MightyBoard/Motherboard/StepperAccelPlanner.o
                0x00801540                extruder_advance_k
 .bss.axis_steps_per_sqr_second
                0x00801544       0x14 build/mighty_one-2560/MightyBoard/Motherboard/StepperAccelPlanner.o
                0x00801544                axis_steps_per_sqr_second
 .bss.slowdown_limit
                0x00801558        0x2 build/mighty_one-2560/MightyBoard/Motherboard/StepperAccelPlanner.o
                0x00801558                slowdown_limit
 .bss.minimumPlannerSpeed
                0x0080155a        0x4 build/mighty_one-2560/MightyBoard/Motherboard/StepperAccelPlanner.o
                0x0080155a                minimumPlannerSpeed
 .bss.max_speed_change
                0x0080155e       0x14 build/mighty_one-2560/MightyBoard/Motherboard/StepperAccelPlanner.o
                0x0080155e                max_speed_change
 .bss.smallest_max_speed_change
                0x00801572        0x4 build/mighty_one-2560/MightyBoard/Motherboard/StepperAccelPlanner.o
                0x00801572                smallest_max_speed_change
 .bss.max_acceleration_units_per_sq_second
                0x00801576       0x14 build/mighty_one-2560/MightyBoard/Motherboard/StepperAccelPlanner.o
                0x00801576                max_acceleration_units_per_sq_second
 .bss._ZL16prev_final_speed
                0x0080158a        0x4 build/mighty_one-2560/MightyBoard/Motherboard/StepperAccelPlanner.o
 .bss._ZL10prev_speed
                0x0080158e       0x14 build/mighty_one-2560/MightyBoard/Motherboard/StepperAccelPlanner.o
 .bss._ZL7NullPin
                0x008015a2        0x6 build/mighty_one-2560/MightyBoard/Motherboard/StepperAccelPlanner.o
 .bss.axesHardwareEnabled
                0x008015a8        0x1 build/mighty_one-2560/MightyBoard/Motherboard/StepperAxis.o
                0x008015a8                axesHardwareEnabled
 .bss.axesEnabled
                0x008015a9        0x1 build/mighty_one-2560/MightyBoard/Motherboard/StepperAxis.o
                0x008015a9                axesEnabled
 .bss.e_steps   0x008015aa        0x4 build/mighty_one-2560/MightyBoard/Motherboard/StepperAxis.o
                0x008015aa                e_steps
 .bss.axis_homing
                0x008015ae        0x5 build/mighty_one-2560/MightyBoard/Motherboard/StepperAxis.o
                0x008015ae                axis_homing
 .bss.dda_position
                0x008015b3       0x14 build/mighty_one-2560/MightyBoard/Motherboard/StepperAxis.o
                0x008015b3                dda_position
 .bss.stepperAxis
                0x008015c7       0xe1 build/mighty_one-2560/MightyBoard/Motherboard/StepperAxis.o
                0x008015c7                stepperAxis
 .bss._ZL12pstop_enable
                0x008016a8        0x1 build/mighty_one-2560/MightyBoard/Motherboard/StepperAxis.o
 .bss._ZL7NullPin
                0x008016a9        0x6 build/mighty_one-2560/MightyBoard/Motherboard/StepperAxis.o
 .bss._ZN8steppers9toolIndexE
                0x008016af        0x1 build/mighty_one-2560/MightyBoard/Motherboard/Steppers.o
                0x008016af                _ZN8steppers9toolIndexE
 .bss._ZN8steppers12tool_offsetsE
                0x008016b0        0x2 build/mighty_one-2560/MightyBoard/Motherboard/Steppers.o
                0x008016b0                _ZN8steppers12tool_offsetsE
 .bss._ZN8steppers13extruder_holdE
                0x008016b2        0x2 build/mighty_one-2560/MightyBoard/Motherboard/Steppers.o
                0x008016b2                _ZN8steppers13extruder_holdE
 .bss._ZN8steppers27axis_steps_per_unit_inverseE
                0x008016b4       0x14 build/mighty_one-2560/MightyBoard/Motherboard/Steppers.o
                0x008016b4                _ZN8steppers27axis_steps_per_unit_inverseE
 .bss._ZN8steppers20plannerMaxBufferSizeE
                0x008016c8        0x1 build/mighty_one-2560/MightyBoard/Motherboard/Steppers.o
                0x008016c8                _ZN8steppers20plannerMaxBufferSizeE
 .bss._ZN8steppers9is_homingE
                0x008016c9        0x1 build/mighty_one-2560/MightyBoard/Motherboard/Steppers.o
                0x008016c9                _ZN8steppers9is_homingE
 .bss._ZN8steppers10is_runningE
                0x008016ca        0x1 build/mighty_one-2560/MightyBoard/Motherboard/Steppers.o
                0x008016ca                _ZN8steppers10is_runningE
 .bss._ZN8steppers9digi_potsE
                0x008016cb       0x37 build/mighty_one-2560/MightyBoard/Motherboard/Steppers.o
                0x008016cb                _ZN8steppers9digi_potsE
 .bss._ZN8steppers10alterSpeedE
                0x00801702        0x1 build/mighty_one-2560/MightyBoard/Motherboard/Steppers.o
                0x00801702                _ZN8steppers10alterSpeedE
 .bss._ZN8steppersL19tolerance_offset_T0E
                0x00801703       0x14 build/mighty_one-2560/MightyBoard/Motherboard/Steppers.o
 .bss._ZN8steppersL19tolerance_offset_T1E
                0x00801717       0x14 build/mighty_one-2560/MightyBoard/Motherboard/Steppers.o
 .bss._ZL7NullPin
                0x0080172b        0x6 build/mighty_one-2560/MightyBoard/Motherboard/Steppers.o
 .bss._ZN7utility9buildFileE
                0x00801731        0x2 build/mighty_one-2560/MightyBoard/Motherboard/UtilityScripts.o
                0x00801731                _ZN7utility9buildFileE
 .bss._ZN7utility12build_lengthE
                0x00801733        0x2 build/mighty_one-2560/MightyBoard/Motherboard/UtilityScripts.o
                0x00801733                _ZN7utility12build_lengthE
 .bss._ZN7utility11build_indexE
                0x00801735        0x2 build/mighty_one-2560/MightyBoard/Motherboard/UtilityScripts.o
                0x00801735                _ZN7utility11build_indexE
 .bss._ZN7utility10is_playingE
                0x00801737        0x1 build/mighty_one-2560/MightyBoard/Motherboard/UtilityScripts.o
                0x00801737                _ZN7utility10is_playingE
 .bss._ZL7NullPin
                0x00801738        0x6 build/mighty_one-2560/MightyBoard/Motherboard/UtilityScripts.o
 .bss._ZL9previousJ
                0x0080173e        0x1 build/mighty_one-2560/MightyBoard/Motherboard/boards/mighty_one/ButtonArray.o
 .bss._ZL11ButtonDelay
                0x0080173f        0x4 build/mighty_one-2560/MightyBoard/Motherboard/boards/mighty_one/ButtonArray.o
 .bss._ZZN11ButtonArray11scanButtonsEvE2st
                0x00801743        0x1 build/mighty_one-2560/MightyBoard/Motherboard/boards/mighty_one/ButtonArray.o
 .bss._ZZN11ButtonArray11scanButtonsEvE5upOld
                0x00801744        0x1 build/mighty_one-2560/MightyBoard/Motherboard/boards/mighty_one/ButtonArray.o
 .bss._ZZN11ButtonArray11scanButtonsEvE7downOld
                0x00801745        0x1 build/mighty_one-2560/MightyBoard/Motherboard/boards/mighty_one/ButtonArray.o
 .bss._ZL7NullPin
                0x00801746        0x6 build/mighty_one-2560/MightyBoard/Motherboard/boards/mighty_one/ButtonArray.o
 .bss._ZL7NullPin
                0x0080174c        0x6 build/mighty_one-2560/MightyBoard/Motherboard/boards/mighty_one/Cutoff.o
 .bss._ZL7NullPin
                0x00801752        0x6 build/mighty_one-2560/MightyBoard/Motherboard/boards/mighty_one/ExtruderBoard.o
 .bss._ZN7RGB_LED9blinkRateE
                0x00801758        0x1 build/mighty_one-2560/MightyBoard/Motherboard/boards/mighty_one/RGB_LED.o
                0x00801758                _ZN7RGB_LED9blinkRateE
 .bss._ZN7RGB_LED9LEDSelectE
                0x00801759        0x1 build/mighty_one-2560/MightyBoard/Motherboard/boards/mighty_one/RGB_LED.o
                0x00801759                _ZN7RGB_LED9LEDSelectE
 .bss._ZL7NullPin
                0x0080175a        0x6 build/mighty_one-2560/MightyBoard/Motherboard/boards/mighty_one/RGB_LED.o
 .bss.fat_errno
                0x00801760        0x1 build/mighty_one-2560/MightyBoard/Motherboard/lib_sd/fat.o
                0x00801760                fat_errno
 .bss._ZL14fat_fs_handles
                0x00801761       0x32 build/mighty_one-2560/MightyBoard/Motherboard/lib_sd/fat.o
 .bss._ZL16fat_file_handles
                0x00801793       0x40 build/mighty_one-2560/MightyBoard/Motherboard/lib_sd/fat.o
 .bss._ZL15fat_dir_handles
                0x008017d3       0x72 build/mighty_one-2560/MightyBoard/Motherboard/lib_sd/fat.o
 .bss._ZL7NullPin
                0x00801845        0x6 build/mighty_one-2560/MightyBoard/Motherboard/lib_sd/fat.o
 .bss._ZL17partition_handles
                0x0080184b       0x11 build/mighty_one-2560/MightyBoard/Motherboard/lib_sd/partition.o
 .bss._ZL7NullPin
                0x0080185c        0x6 build/mighty_one-2560/MightyBoard/Motherboard/lib_sd/partition.o
 .bss.sd_errno  0x00801862        0x1 build/mighty_one-2560/MightyBoard/Motherboard/lib_sd/sd_raw.o
                0x00801862                sd_errno
 .bss._ZL10sd_use_crc
                0x00801863        0x1 build/mighty_one-2560/MightyBoard/Motherboard/lib_sd/sd_raw.o
 .bss._ZL16sd_raw_card_type
                0x00801864        0x1 build/mighty_one-2560/MightyBoard/Motherboard/lib_sd/sd_raw.o
 .bss._ZL17raw_block_address
                0x00801865        0x8 build/mighty_one-2560/MightyBoard/Motherboard/lib_sd/sd_raw.o
 .bss._ZL17raw_block_written
                0x0080186d        0x1 build/mighty_one-2560/MightyBoard/Motherboard/lib_sd/sd_raw.o
 .bss._ZL9raw_block
                0x0080186e      0x200 build/mighty_one-2560/MightyBoard/Motherboard/lib_sd/sd_raw.o
 .bss._ZL7NullPin
                0x00801a6e        0x6 build/mighty_one-2560/MightyBoard/Motherboard/lib_sd/sd_raw.o
 .bss.adc_finished
                0x00801a74        0x2 build/mighty_one-2560/MightyBoard/shared/AnalogPin.o
                0x00801a74                adc_finished
 .bss.adc_destination
                0x00801a76        0x2 build/mighty_one-2560/MightyBoard/shared/AnalogPin.o
                0x00801a76                adc_destination
 .bss.NullPort  0x00801a78        0x2 build/mighty_one-2560/MightyBoard/shared/AvrPort.o
                0x00801a78                NullPort
 .bss.PortL     0x00801a7a        0x2 build/mighty_one-2560/MightyBoard/shared/AvrPort.o
                0x00801a7a                PortL
 .bss.PortK     0x00801a7c        0x2 build/mighty_one-2560/MightyBoard/shared/AvrPort.o
                0x00801a7c                PortK
 .bss.PortJ     0x00801a7e        0x2 build/mighty_one-2560/MightyBoard/shared/AvrPort.o
                0x00801a7e                PortJ
 .bss.PortH     0x00801a80        0x2 build/mighty_one-2560/MightyBoard/shared/AvrPort.o
                0x00801a80                PortH
 .bss.PortG     0x00801a82        0x2 build/mighty_one-2560/MightyBoard/shared/AvrPort.o
                0x00801a82                PortG
 .bss.PortF     0x00801a84        0x2 build/mighty_one-2560/MightyBoard/shared/AvrPort.o
                0x00801a84                PortF
 .bss.PortE     0x00801a86        0x2 build/mighty_one-2560/MightyBoard/shared/AvrPort.o
                0x00801a86                PortE
 .bss.PortD     0x00801a88        0x2 build/mighty_one-2560/MightyBoard/shared/AvrPort.o
                0x00801a88                PortD
 .bss.PortC     0x00801a8a        0x2 build/mighty_one-2560/MightyBoard/shared/AvrPort.o
                0x00801a8a                PortC
 .bss.PortB     0x00801a8c        0x2 build/mighty_one-2560/MightyBoard/shared/AvrPort.o
                0x00801a8c                PortB
 .bss.PortA     0x00801a8e        0x2 build/mighty_one-2560/MightyBoard/shared/AvrPort.o
                0x00801a8e                PortA
 .bss._ZL7NullPin
                0x00801a90        0x6 build/mighty_one-2560/MightyBoard/shared/CoolingFan.o
 .bss._ZL7NullPin
                0x00801a96        0x6 build/mighty_one-2560/MightyBoard/shared/DigiPots.o
 .bss._ZL7NullPin
                0x00801a9c        0x6 build/mighty_one-2560/MightyBoard/shared/Eeprom.o
 .bss._ZL7NullPin
                0x00801aa2        0x6 build/mighty_one-2560/MightyBoard/shared/Heater.o
 .bss._ZN9interface5boardE
                0x00801aa8        0x2 build/mighty_one-2560/MightyBoard/shared/Interface.o
                0x00801aa8                _ZN9interface5boardE
 .bss._ZN9interface3lcdE
                0x00801aaa        0x2 build/mighty_one-2560/MightyBoard/shared/Interface.o
                0x00801aaa                _ZN9interface3lcdE
 .bss._ZL7NullPin
                0x00801aac        0x6 build/mighty_one-2560/MightyBoard/shared/Interface.o
 .bss.onboard_build
                0x00801ab2        0x1 build/mighty_one-2560/MightyBoard/shared/InterfaceBoard.o
                0x00801ab2                onboard_build
 .bss.button_timeout
                0x00801ab3        0xf build/mighty_one-2560/MightyBoard/shared/InterfaceBoard.o
                0x00801ab3                button_timeout
 .bss._ZZN14InterfaceBoard8doUpdateEvE6button
                0x00801ac2        0x1 build/mighty_one-2560/MightyBoard/shared/InterfaceBoard.o
 .bss._ZL7NullPin
                0x00801ac3        0x6 build/mighty_one-2560/MightyBoard/shared/InterfaceBoard.o
 .bss._ZL7NullPin
                0x00801ac9        0x6 build/mighty_one-2560/MightyBoard/shared/LiquidCrystalSerial.o
 .bss.splashScreen
                0x00801acf        0x4 build/mighty_one-2560/MightyBoard/shared/Menu.o
                0x00801acf                splashScreen
 .bss.settingsMenu
                0x00801ad3       0x14 build/mighty_one-2560/MightyBoard/shared/Menu.o
                0x00801ad3                settingsMenu
 .bss.sdMenu    0x00801ae7       0x13 build/mighty_one-2560/MightyBoard/shared/Menu.o
                0x00801ae7                sdMenu
 .bss.languageMenu
                0x00801afa        0x9 build/mighty_one-2560/MightyBoard/shared/Menu.o
                0x00801afa                languageMenu
 .bss.resetSettingsMenu
                0x00801b03        0x9 build/mighty_one-2560/MightyBoard/shared/Menu.o
                0x00801b03                resetSettingsMenu
 .bss.monitorModeScreen
                0x00801b0c        0x8 build/mighty_one-2560/MightyBoard/shared/Menu.o
                0x00801b0c                monitorModeScreen
 .bss.jogModeScreen
                0x00801b14        0xb build/mighty_one-2560/MightyBoard/shared/Menu.o
                0x00801b14                jogModeScreen
 .bss.homeOffsetsModeScreen
                0x00801b1f        0x6 build/mighty_one-2560/MightyBoard/shared/Menu.o
                0x00801b1f                homeOffsetsModeScreen
 .bss.filamentScreen
                0x00801b25       0x21 build/mighty_one-2560/MightyBoard/shared/Menu.o
                0x00801b25                filamentScreen
 .bss.filamentMenu
                0x00801b46        0x9 build/mighty_one-2560/MightyBoard/shared/Menu.o
                0x00801b46                filamentMenu
 .bss.changeTempScreen
                0x00801b4f        0x6 build/mighty_one-2560/MightyBoard/shared/Menu.o
                0x00801b4f                changeTempScreen
 .bss.changeSpeedScreen
                0x00801b55        0x8 build/mighty_one-2560/MightyBoard/shared/Menu.o
                0x00801b55                changeSpeedScreen
 .bss.cancelBuildMenu
                0x00801b5d        0xa build/mighty_one-2560/MightyBoard/shared/Menu.o
                0x00801b5d                cancelBuildMenu
 .bss.activeBuildMenu
                0x00801b67        0xd build/mighty_one-2560/MightyBoard/shared/Menu.o
                0x00801b67                activeBuildMenu
 .bss.homePosition
                0x00801b74        0xc build/mighty_one-2560/MightyBoard/shared/Menu.o
                0x00801b74                homePosition
 .bss.filamentSuccess
                0x00801b80        0x1 build/mighty_one-2560/MightyBoard/shared/Menu.o
                0x00801b80                filamentSuccess
 .bss._ZL13lastHeatIndex
                0x00801b81        0x1 build/mighty_one-2560/MightyBoard/shared/Menu.o
 .bss._ZL11toggleBlink
                0x00801b82        0x1 build/mighty_one-2560/MightyBoard/shared/Menu.o
 .bss._ZL10singleTool
                0x00801b83        0x1 build/mighty_one-2560/MightyBoard/shared/Menu.o
 .bss._ZL7NullPin
                0x00801b84        0x6 build/mighty_one-2560/MightyBoard/shared/Menu.o
 .bss._ZL7NullPin
                0x00801b8a        0x6 build/mighty_one-2560/MightyBoard/shared/PSU.o
 .bss._ZL7NullPin
                0x00801b90        0x6 build/mighty_one-2560/MightyBoard/shared/Pin.o
 .bss._ZL7NullPin
                0x00801b96        0x6 build/mighty_one-2560/MightyBoard/shared/Thermocouple.o
 .bss._ZL7NullPin
                0x00801b9c        0x6 build/mighty_one-2560/MightyBoard/shared/Timeout.o
 .bss._ZN4UART8hostUARTE
                0x00801ba2       0x4d build/mighty_one-2560/MightyBoard/shared/UART.o
                0x00801ba2                _ZN4UART8hostUARTE
 .bss.loopback_bytes
                0x00801bef        0x1 build/mighty_one-2560/MightyBoard/shared/UART.o
                0x00801bef                loopback_bytes
 .bss._ZL9TX_Enable
                0x00801bf0        0x6 build/mighty_one-2560/MightyBoard/shared/UART.o
 .bss._ZL9RX_Enable
                0x00801bf6        0x6 build/mighty_one-2560/MightyBoard/shared/UART.o
 .bss._ZL7NullPin
                0x00801bfc        0x6 build/mighty_one-2560/MightyBoard/shared/UART.o
 *(COMMON)
                0x00801c02                PROVIDE (__bss_end, .)
                0x0001e2b0                __data_load_start = LOADADDR (.data)
                0x0001e684                __data_load_end = (__data_load_start + SIZEOF (.data))

.noinit         0x00801c02        0x0
                0x00801c02                PROVIDE (__noinit_start, .)
 *(.noinit*)
                0x00801c02                PROVIDE (__noinit_end, .)
                0x00801c02                _end = .
                0x00801c02                PROVIDE (__heap_start, .)

.eeprom         0x00810000        0x0
 *(.eeprom*)
                0x00810000                __eeprom_end = .

.fuse
 *(.fuse)
 *(.lfuse)
 *(.hfuse)
 *(.efuse)

.lock
 *(.lock*)

.signature
 *(.signature*)

.stab           0x00000000     0x3e88
 *(.stab)
 .stab          0x00000000      0x6e4 /home/jin/local/avr/lib/gcc/avr/4.6.3/../../../../avr/lib/avr6/crtm2560.o
 .stab          0x000006e4       0x78 /home/jin/local/avr/lib/gcc/avr/4.6.3/../../../../avr/lib/avr6/libm.a(addsf3.o)
                                 0x84 (size before relaxing)
 .stab          0x0000075c      0x4bc /home/jin/local/avr/lib/gcc/avr/4.6.3/../../../../avr/lib/avr6/libm.a(addsf3x.o)
                                0x4c8 (size before relaxing)
 .stab          0x00000c18      0x114 /home/jin/local/avr/lib/gcc/avr/4.6.3/../../../../avr/lib/avr6/libm.a(ceil.o)
                                0x120 (size before relaxing)
 .stab          0x00000d2c       0x90 /home/jin/local/avr/lib/gcc/avr/4.6.3/../../../../avr/lib/avr6/libm.a(cmpsf2.o)
                                 0x9c (size before relaxing)
 .stab          0x00000dbc       0x48 /home/jin/local/avr/lib/gcc/avr/4.6.3/../../../../avr/lib/avr6/libm.a(divsf3.o)
                                 0x54 (size before relaxing)
 .stab          0x00000e04      0x510 /home/jin/local/avr/lib/gcc/avr/4.6.3/../../../../avr/lib/avr6/libm.a(divsf3x.o)
                                0x51c (size before relaxing)
 .stab          0x00001314      0x2f4 /home/jin/local/avr/lib/gcc/avr/4.6.3/../../../../avr/lib/avr6/libm.a(fixsfdi.o)
                                0x300 (size before relaxing)
 .stab          0x00001608       0x6c /home/jin/local/avr/lib/gcc/avr/4.6.3/../../../../avr/lib/avr6/libm.a(fixsfsi.o)
                                 0x78 (size before relaxing)
 .stab          0x00001674      0x240 /home/jin/local/avr/lib/gcc/avr/4.6.3/../../../../avr/lib/avr6/libm.a(fixunssfsi.o)
                                0x24c (size before relaxing)
 .stab          0x000018b4      0x318 /home/jin/local/avr/lib/gcc/avr/4.6.3/../../../../avr/lib/avr6/libm.a(floatsisf.o)
                                0x324 (size before relaxing)
 .stab          0x00001bcc      0x1e0 /home/jin/local/avr/lib/gcc/avr/4.6.3/../../../../avr/lib/avr6/libm.a(fp_cmp.o)
                                0x1ec (size before relaxing)
 .stab          0x00001dac       0x78 /home/jin/local/avr/lib/gcc/avr/4.6.3/../../../../avr/lib/avr6/libm.a(fp_inf.o)
                                 0x84 (size before relaxing)
 .stab          0x00001e24      0x174 /home/jin/local/avr/lib/gcc/avr/4.6.3/../../../../avr/lib/avr6/libm.a(fp_mintl.o)
                                0x180 (size before relaxing)
 .stab          0x00001f98       0xe4 /home/jin/local/avr/lib/gcc/avr/4.6.3/../../../../avr/lib/avr6/libm.a(fp_mpack.o)
                                 0xf0 (size before relaxing)
 .stab          0x0000207c       0x54 /home/jin/local/avr/lib/gcc/avr/4.6.3/../../../../avr/lib/avr6/libm.a(fp_nan.o)
                                 0x60 (size before relaxing)
 .stab          0x000020d0       0xf0 /home/jin/local/avr/lib/gcc/avr/4.6.3/../../../../avr/lib/avr6/libm.a(fp_negdi.o)
                                 0xfc (size before relaxing)
 .stab          0x000021c0       0x84 /home/jin/local/avr/lib/gcc/avr/4.6.3/../../../../avr/lib/avr6/libm.a(fp_pscA.o)
                                 0x90 (size before relaxing)
 .stab          0x00002244       0x84 /home/jin/local/avr/lib/gcc/avr/4.6.3/../../../../avr/lib/avr6/libm.a(fp_pscB.o)
                                 0x90 (size before relaxing)
 .stab          0x000022c8       0xfc /home/jin/local/avr/lib/gcc/avr/4.6.3/../../../../avr/lib/avr6/libm.a(fp_round.o)
                                0x108 (size before relaxing)
 .stab          0x000023c4      0x1d4 /home/jin/local/avr/lib/gcc/avr/4.6.3/../../../../avr/lib/avr6/libm.a(fp_split3.o)
                                0x1e0 (size before relaxing)
 .stab          0x00002598      0x144 /home/jin/local/avr/lib/gcc/avr/4.6.3/../../../../avr/lib/avr6/libm.a(fp_trunc.o)
                                0x150 (size before relaxing)
 .stab          0x000026dc       0x90 /home/jin/local/avr/lib/gcc/avr/4.6.3/../../../../avr/lib/avr6/libm.a(fp_zero.o)
                                 0x9c (size before relaxing)
 .stab          0x0000276c       0x6c /home/jin/local/avr/lib/gcc/avr/4.6.3/../../../../avr/lib/avr6/libm.a(gesf2.o)
                                 0x78 (size before relaxing)
 .stab          0x000027d8      0x378 /home/jin/local/avr/lib/gcc/avr/4.6.3/../../../../avr/lib/avr6/libm.a(log.o)
                                0x384 (size before relaxing)
 .stab          0x00002b50       0x48 /home/jin/local/avr/lib/gcc/avr/4.6.3/../../../../avr/lib/avr6/libm.a(mulsf3.o)
                                 0x54 (size before relaxing)
 .stab          0x00002b98      0x4d4 /home/jin/local/avr/lib/gcc/avr/4.6.3/../../../../avr/lib/avr6/libm.a(mulsf3x.o)
                                0x4e0 (size before relaxing)
 .stab          0x0000306c      0x354 /home/jin/local/avr/lib/gcc/avr/4.6.3/../../../../avr/lib/avr6/libm.a(sqrt.o)
                                0x360 (size before relaxing)
 .stab          0x000033c0       0x84 /home/jin/local/avr/lib/gcc/avr/4.6.3/../../../../avr/lib/avr6/libm.a(fp_norm2.o)
                                 0x90 (size before relaxing)
 .stab          0x00003444      0x1ec /home/jin/local/avr/lib/gcc/avr/4.6.3/../../../../avr/lib/avr6/libm.a(fp_powser.o)
                                0x1f8 (size before relaxing)
 .stab          0x00003630      0x120 /home/jin/local/avr/lib/gcc/avr/4.6.3/../../../../avr/lib/avr6/libc.a(strlcpy_P.o)
                                0x12c (size before relaxing)
 .stab          0x00003750       0x84 /home/jin/local/avr/lib/gcc/avr/4.6.3/../../../../avr/lib/avr6/libc.a(memcpy.o)
                                 0x90 (size before relaxing)
 .stab          0x000037d4       0x6c /home/jin/local/avr/lib/gcc/avr/4.6.3/../../../../avr/lib/avr6/libc.a(memset.o)
                                 0x78 (size before relaxing)
 .stab          0x00003840       0x9c /home/jin/local/avr/lib/gcc/avr/4.6.3/../../../../avr/lib/avr6/libc.a(strchr.o)
                                 0xa8 (size before relaxing)
 .stab          0x000038dc       0x84 /home/jin/local/avr/lib/gcc/avr/4.6.3/../../../../avr/lib/avr6/libc.a(strcmp.o)
                                 0x90 (size before relaxing)
 .stab          0x00003960       0xc0 /home/jin/local/avr/lib/gcc/avr/4.6.3/../../../../avr/lib/avr6/libc.a(strncmp.o)
                                 0xcc (size before relaxing)
 .stab          0x00003a20       0x9c /home/jin/local/avr/lib/gcc/avr/4.6.3/../../../../avr/lib/avr6/libc.a(strrchr.o)
                                 0xa8 (size before relaxing)
 .stab          0x00003abc      0x108 /home/jin/local/avr/lib/gcc/avr/4.6.3/../../../../avr/lib/avr6/libc.a(eerd_block_atmega2560.o)
                                0x114 (size before relaxing)
 .stab          0x00003bc4       0x78 /home/jin/local/avr/lib/gcc/avr/4.6.3/../../../../avr/lib/avr6/libc.a(eerd_dword_atmega2560.o)
                                 0x84 (size before relaxing)
 .stab          0x00003c3c       0x9c /home/jin/local/avr/lib/gcc/avr/4.6.3/../../../../avr/lib/avr6/libc.a(eewr_block_atmega2560.o)
                                 0xa8 (size before relaxing)
 .stab          0x00003cd8       0xe4 /home/jin/local/avr/lib/gcc/avr/4.6.3/../../../../avr/lib/avr6/libc.a(eewr_byte_atmega2560.o)
                                 0xf0 (size before relaxing)
 .stab          0x00003dbc       0x78 /home/jin/local/avr/lib/gcc/avr/4.6.3/../../../../avr/lib/avr6/libc.a(eewr_dword_atmega2560.o)
                                 0x84 (size before relaxing)
 .stab          0x00003e34       0x54 /home/jin/local/avr/lib/gcc/avr/4.6.3/../../../../avr/lib/avr6/libc.a(eewr_word_atmega2560.o)
                                 0x60 (size before relaxing)

.stabstr        0x00000000      0x87e
 *(.stabstr)
 .stabstr       0x00000000      0x87e /home/jin/local/avr/lib/gcc/avr/4.6.3/../../../../avr/lib/avr6/crtm2560.o

.stab.excl
 *(.stab.excl)

.stab.exclstr
 *(.stab.exclstr)

.stab.index
 *(.stab.index)

.stab.indexstr
 *(.stab.indexstr)

.comment
 *(.comment)

.debug
 *(.debug)

.line
 *(.line)

.debug_srcinfo
 *(.debug_srcinfo)

.debug_sfnames
 *(.debug_sfnames)

.debug_aranges  0x00000000     0x19c0
 *(.debug_aranges)
 .debug_aranges
                0x00000000      0x160 build/mighty_one-2560/MightyBoard/Motherboard/Command.o
 .debug_aranges
                0x00000160       0xe8 build/mighty_one-2560/MightyBoard/Motherboard/EepromMap.o
 .debug_aranges
                0x00000248       0xf0 build/mighty_one-2560/MightyBoard/Motherboard/Host.o
 .debug_aranges
                0x00000338       0x40 build/mighty_one-2560/MightyBoard/Motherboard/Main.o
 .debug_aranges
                0x00000378       0xe8 build/mighty_one-2560/MightyBoard/Motherboard/Motherboard.o
 .debug_aranges
                0x00000460       0x70 build/mighty_one-2560/MightyBoard/Motherboard/Piezo.o
 .debug_aranges
                0x000004d0       0x58 build/mighty_one-2560/MightyBoard/Motherboard/Point.o
 .debug_aranges
                0x00000528       0xc8 build/mighty_one-2560/MightyBoard/Motherboard/SDCard.o
 .debug_aranges
                0x000005f0       0x48 build/mighty_one-2560/MightyBoard/Motherboard/SkewTilt.o
 .debug_aranges
                0x00000638       0x58 build/mighty_one-2560/MightyBoard/Motherboard/SoftI2cManager.o
 .debug_aranges
                0x00000690       0x68 build/mighty_one-2560/MightyBoard/Motherboard/StepperAccel.o
 .debug_aranges
                0x000006f8       0x80 build/mighty_one-2560/MightyBoard/Motherboard/StepperAccelPlanner.o
 .debug_aranges
                0x00000778       0x40 build/mighty_one-2560/MightyBoard/Motherboard/StepperAxis.o
 .debug_aranges
                0x000007b8       0xf0 build/mighty_one-2560/MightyBoard/Motherboard/Steppers.o
 .debug_aranges
                0x000008a8       0x38 build/mighty_one-2560/MightyBoard/Motherboard/TWI.o
 .debug_aranges
                0x000008e0       0x50 build/mighty_one-2560/MightyBoard/Motherboard/UtilityScripts.o
 .debug_aranges
                0x00000930       0x58 build/mighty_one-2560/MightyBoard/Motherboard/boards/mighty_one/ButtonArray.o
 .debug_aranges
                0x00000988       0x58 build/mighty_one-2560/MightyBoard/Motherboard/boards/mighty_one/Cutoff.o
 .debug_aranges
                0x000009e0       0x60 build/mighty_one-2560/MightyBoard/Motherboard/boards/mighty_one/ExtruderBoard.o
 .debug_aranges
                0x00000a40       0x78 build/mighty_one-2560/MightyBoard/Motherboard/boards/mighty_one/RGB_LED.o
 .debug_aranges
                0x00000ab8      0x110 build/mighty_one-2560/MightyBoard/Motherboard/lib_sd/fat.o
 .debug_aranges
                0x00000bc8       0x30 build/mighty_one-2560/MightyBoard/Motherboard/lib_sd/partition.o
 .debug_aranges
                0x00000bf8       0x28 build/mighty_one-2560/MightyBoard/Motherboard/lib_sd/sd_crc.o
 .debug_aranges
                0x00000c20       0x80 build/mighty_one-2560/MightyBoard/Motherboard/lib_sd/sd_raw.o
 .debug_aranges
                0x00000ca0       0x30 build/mighty_one-2560/MightyBoard/shared/AnalogPin.o
 .debug_aranges
                0x00000cd0       0x60 build/mighty_one-2560/MightyBoard/shared/AvrPort.o
 .debug_aranges
                0x00000d30       0x60 build/mighty_one-2560/MightyBoard/shared/CoolingFan.o
 .debug_aranges
                0x00000d90       0x48 build/mighty_one-2560/MightyBoard/shared/DigiPots.o
 .debug_aranges
                0x00000dd8       0x78 build/mighty_one-2560/MightyBoard/shared/Eeprom.o
 .debug_aranges
                0x00000e50       0x88 build/mighty_one-2560/MightyBoard/shared/Heater.o
 .debug_aranges
                0x00000ed8       0x70 build/mighty_one-2560/MightyBoard/shared/Interface.o
 .debug_aranges
                0x00000f48       0x98 build/mighty_one-2560/MightyBoard/shared/InterfaceBoard.o
 .debug_aranges
                0x00000fe0      0x170 build/mighty_one-2560/MightyBoard/shared/LiquidCrystalSerial.o
 .debug_aranges
                0x00001150      0x358 build/mighty_one-2560/MightyBoard/shared/Menu.o
 .debug_aranges
                0x000014a8       0x40 build/mighty_one-2560/MightyBoard/shared/PID.o
 .debug_aranges
                0x000014e8       0x38 build/mighty_one-2560/MightyBoard/shared/PSU.o
 .debug_aranges
                0x00001520       0x90 build/mighty_one-2560/MightyBoard/shared/Packet.o
 .debug_aranges
                0x000015b0       0x58 build/mighty_one-2560/MightyBoard/shared/Pin.o
 .debug_aranges
                0x00001608       0x40 build/mighty_one-2560/MightyBoard/shared/Thermistor.o
 .debug_aranges
                0x00001648       0x48 build/mighty_one-2560/MightyBoard/shared/Thermocouple.o
 .debug_aranges
                0x00001690       0x58 build/mighty_one-2560/MightyBoard/shared/Timeout.o
 .debug_aranges
                0x000016e8       0x58 build/mighty_one-2560/MightyBoard/shared/UART.o
 .debug_aranges
                0x00001740       0x40 build/mighty_one-2560/MightyBoard/Motherboard/avrfix/avrfix.o
 .debug_aranges
                0x00001780       0x20 /home/jin/local/avr/lib/gcc/avr/4.6.3/avr6/libgcc.a(_mulsi3.o)
 .debug_aranges
                0x000017a0       0x20 /home/jin/local/avr/lib/gcc/avr/4.6.3/avr6/libgcc.a(_udivmodqi4.o)
 .debug_aranges
                0x000017c0       0x20 /home/jin/local/avr/lib/gcc/avr/4.6.3/avr6/libgcc.a(_udivmodhi4.o)
 .debug_aranges
                0x000017e0       0x20 /home/jin/local/avr/lib/gcc/avr/4.6.3/avr6/libgcc.a(_divmodhi4.o)
 .debug_aranges
                0x00001800       0x20 /home/jin/local/avr/lib/gcc/avr/4.6.3/avr6/libgcc.a(_udivmodsi4.o)
 .debug_aranges
                0x00001820       0x20 /home/jin/local/avr/lib/gcc/avr/4.6.3/avr6/libgcc.a(_divmodsi4.o)
 .debug_aranges
                0x00001840       0x20 /home/jin/local/avr/lib/gcc/avr/4.6.3/avr6/libgcc.a(_exit.o)
 .debug_aranges
                0x00001860       0x20 /home/jin/local/avr/lib/gcc/avr/4.6.3/avr6/libgcc.a(_copy_data.o)
 .debug_aranges
                0x00001880       0x20 /home/jin/local/avr/lib/gcc/avr/4.6.3/avr6/libgcc.a(_clear_bss.o)
 .debug_aranges
                0x000018a0       0x20 /home/jin/local/avr/lib/gcc/avr/4.6.3/avr6/libgcc.a(_ctors.o)
 .debug_aranges
                0x000018c0       0x20 /home/jin/local/avr/lib/gcc/avr/4.6.3/avr6/libgcc.a(_muldi3.o)
 .debug_aranges
                0x000018e0       0x20 /home/jin/local/avr/lib/gcc/avr/4.6.3/avr6/libgcc.a(_lshrdi3.o)
 .debug_aranges
                0x00001900       0x20 /home/jin/local/avr/lib/gcc/avr/4.6.3/avr6/libgcc.a(_ashldi3.o)
 .debug_aranges
                0x00001920       0x20 /home/jin/local/avr/lib/gcc/avr/4.6.3/avr6/libgcc.a(_ashrdi3.o)
 .debug_aranges
                0x00001940       0x20 /home/jin/local/avr/lib/gcc/avr/4.6.3/avr6/libgcc.a(_divdi3.o)
 .debug_aranges
                0x00001960       0x20 /home/jin/local/avr/lib/gcc/avr/4.6.3/avr6/libgcc.a(_prologue.o)
 .debug_aranges
                0x00001980       0x20 /home/jin/local/avr/lib/gcc/avr/4.6.3/avr6/libgcc.a(_epilogue.o)
 .debug_aranges
                0x000019a0       0x20 /home/jin/local/avr/lib/gcc/avr/4.6.3/avr6/libgcc.a(_tablejump_elpm.o)

.debug_pubnames
 *(.debug_pubnames)

.debug_info     0x00000000    0x4dfb3
 *(.debug_info)
 .debug_info    0x00000000     0x68b4 build/mighty_one-2560/MightyBoard/Motherboard/Command.o
 .debug_info    0x000068b4     0x1baf build/mighty_one-2560/MightyBoard/Motherboard/EepromMap.o
 .debug_info    0x00008463     0x5218 build/mighty_one-2560/MightyBoard/Motherboard/Host.o
 .debug_info    0x0000d67b     0x2c34 build/mighty_one-2560/MightyBoard/Motherboard/Main.o
 .debug_info    0x000102af     0x523b build/mighty_one-2560/MightyBoard/Motherboard/Motherboard.o
 .debug_info    0x000154ea     0x201f build/mighty_one-2560/MightyBoard/Motherboard/Piezo.o
 .debug_info    0x00017509      0x600 build/mighty_one-2560/MightyBoard/Motherboard/Point.o
 .debug_info    0x00017b09     0x2fd9 build/mighty_one-2560/MightyBoard/Motherboard/SDCard.o
 .debug_info    0x0001aae2      0x297 build/mighty_one-2560/MightyBoard/Motherboard/SkewTilt.o
 .debug_info    0x0001ad79      0xa7c build/mighty_one-2560/MightyBoard/Motherboard/SoftI2cManager.o
 .debug_info    0x0001b7f5     0x2a9b build/mighty_one-2560/MightyBoard/Motherboard/StepperAccel.o
 .debug_info    0x0001e290     0x2337 build/mighty_one-2560/MightyBoard/Motherboard/StepperAccelPlanner.o
 .debug_info    0x000205c7     0x14ca build/mighty_one-2560/MightyBoard/Motherboard/StepperAxis.o
 .debug_info    0x00021a91     0x24fd build/mighty_one-2560/MightyBoard/Motherboard/Steppers.o
 .debug_info    0x00023f8e      0x1c7 build/mighty_one-2560/MightyBoard/Motherboard/TWI.o
 .debug_info    0x00024155     0x23f2 build/mighty_one-2560/MightyBoard/Motherboard/UtilityScripts.o
 .debug_info    0x00026547      0x9ae build/mighty_one-2560/MightyBoard/Motherboard/boards/mighty_one/ButtonArray.o
 .debug_info    0x00026ef5      0x643 build/mighty_one-2560/MightyBoard/Motherboard/boards/mighty_one/Cutoff.o
 .debug_info    0x00027538     0x1dde build/mighty_one-2560/MightyBoard/Motherboard/boards/mighty_one/ExtruderBoard.o
 .debug_info    0x00029316     0x14a2 build/mighty_one-2560/MightyBoard/Motherboard/boards/mighty_one/RGB_LED.o
 .debug_info    0x0002a7b8     0x1dbe build/mighty_one-2560/MightyBoard/Motherboard/lib_sd/fat.o
 .debug_info    0x0002c576      0x67d build/mighty_one-2560/MightyBoard/Motherboard/lib_sd/partition.o
 .debug_info    0x0002cbf3      0x1ca build/mighty_one-2560/MightyBoard/Motherboard/lib_sd/sd_crc.o
 .debug_info    0x0002cdbd      0xd88 build/mighty_one-2560/MightyBoard/Motherboard/lib_sd/sd_raw.o
 .debug_info    0x0002db45      0x1fb build/mighty_one-2560/MightyBoard/shared/AnalogPin.o
 .debug_info    0x0002dd40      0x7ce build/mighty_one-2560/MightyBoard/shared/AvrPort.o
 .debug_info    0x0002e50e     0x1a8e build/mighty_one-2560/MightyBoard/shared/CoolingFan.o
 .debug_info    0x0002ff9c     0x1712 build/mighty_one-2560/MightyBoard/shared/DigiPots.o
 .debug_info    0x000316ae     0x18e2 build/mighty_one-2560/MightyBoard/shared/Eeprom.o
 .debug_info    0x00032f90     0x3174 build/mighty_one-2560/MightyBoard/shared/Heater.o
 .debug_info    0x00036104     0x1a6a build/mighty_one-2560/MightyBoard/shared/Interface.o
 .debug_info    0x00037b6e     0x309e build/mighty_one-2560/MightyBoard/shared/InterfaceBoard.o
 .debug_info    0x0003ac0c     0x2271 build/mighty_one-2560/MightyBoard/shared/LiquidCrystalSerial.o
 .debug_info    0x0003ce7d     0x988d build/mighty_one-2560/MightyBoard/shared/Menu.o
 .debug_info    0x0004670a      0x410 build/mighty_one-2560/MightyBoard/shared/PID.o
 .debug_info    0x00046b1a      0x4ec build/mighty_one-2560/MightyBoard/shared/PSU.o
 .debug_info    0x00047006      0xbb9 build/mighty_one-2560/MightyBoard/shared/Packet.o
 .debug_info    0x00047bbf      0x596 build/mighty_one-2560/MightyBoard/shared/Pin.o
 .debug_info    0x00048155      0x4db build/mighty_one-2560/MightyBoard/shared/Thermistor.o
 .debug_info    0x00048630      0x742 build/mighty_one-2560/MightyBoard/shared/Thermocouple.o
 .debug_info    0x00048d72     0x2c6f build/mighty_one-2560/MightyBoard/shared/Timeout.o
 .debug_info    0x0004b9e1      0xce5 build/mighty_one-2560/MightyBoard/shared/UART.o
 .debug_info    0x0004c6c6      0x348 build/mighty_one-2560/MightyBoard/Motherboard/avrfix/avrfix.o
 .debug_info    0x0004ca0e       0x88 /home/jin/local/avr/lib/gcc/avr/4.6.3/avr6/libgcc.a(_mulsi3.o)
 .debug_info    0x0004ca96       0x88 /home/jin/local/avr/lib/gcc/avr/4.6.3/avr6/libgcc.a(_udivmodqi4.o)
 .debug_info    0x0004cb1e       0x88 /home/jin/local/avr/lib/gcc/avr/4.6.3/avr6/libgcc.a(_udivmodhi4.o)
 .debug_info    0x0004cba6       0x88 /home/jin/local/avr/lib/gcc/avr/4.6.3/avr6/libgcc.a(_divmodhi4.o)
 .debug_info    0x0004cc2e       0x88 /home/jin/local/avr/lib/gcc/avr/4.6.3/avr6/libgcc.a(_udivmodsi4.o)
 .debug_info    0x0004ccb6       0x88 /home/jin/local/avr/lib/gcc/avr/4.6.3/avr6/libgcc.a(_divmodsi4.o)
 .debug_info    0x0004cd3e       0x88 /home/jin/local/avr/lib/gcc/avr/4.6.3/avr6/libgcc.a(_exit.o)
 .debug_info    0x0004cdc6       0x88 /home/jin/local/avr/lib/gcc/avr/4.6.3/avr6/libgcc.a(_copy_data.o)
 .debug_info    0x0004ce4e       0x88 /home/jin/local/avr/lib/gcc/avr/4.6.3/avr6/libgcc.a(_clear_bss.o)
 .debug_info    0x0004ced6       0x88 /home/jin/local/avr/lib/gcc/avr/4.6.3/avr6/libgcc.a(_ctors.o)
 .debug_info    0x0004cf5e      0x20c /home/jin/local/avr/lib/gcc/avr/4.6.3/avr6/libgcc.a(_muldi3.o)
 .debug_info    0x0004d16a      0x184 /home/jin/local/avr/lib/gcc/avr/4.6.3/avr6/libgcc.a(_lshrdi3.o)
 .debug_info    0x0004d2ee      0x184 /home/jin/local/avr/lib/gcc/avr/4.6.3/avr6/libgcc.a(_ashldi3.o)
 .debug_info    0x0004d472      0x184 /home/jin/local/avr/lib/gcc/avr/4.6.3/avr6/libgcc.a(_ashrdi3.o)
 .debug_info    0x0004d5f6      0x77f /home/jin/local/avr/lib/gcc/avr/4.6.3/avr6/libgcc.a(_divdi3.o)
 .debug_info    0x0004dd75       0x88 /home/jin/local/avr/lib/gcc/avr/4.6.3/avr6/libgcc.a(_prologue.o)
 .debug_info    0x0004ddfd       0x88 /home/jin/local/avr/lib/gcc/avr/4.6.3/avr6/libgcc.a(_epilogue.o)
 .debug_info    0x0004de85       0x88 /home/jin/local/avr/lib/gcc/avr/4.6.3/avr6/libgcc.a(_tablejump_elpm.o)
 .debug_info    0x0004df0d       0xa6 /home/jin/local/avr/lib/gcc/avr/4.6.3/avr6/libgcc.a(_clz.o)
 *(.gnu.linkonce.wi.*)

.debug_abbrev   0x00000000     0xaab9
 *(.debug_abbrev)
 .debug_abbrev  0x00000000      0x85a build/mighty_one-2560/MightyBoard/Motherboard/Command.o
 .debug_abbrev  0x0000085a      0x450 build/mighty_one-2560/MightyBoard/Motherboard/EepromMap.o
 .debug_abbrev  0x00000caa      0x7f6 build/mighty_one-2560/MightyBoard/Motherboard/Host.o
 .debug_abbrev  0x000014a0      0x56e build/mighty_one-2560/MightyBoard/Motherboard/Main.o
 .debug_abbrev  0x00001a0e      0x799 build/mighty_one-2560/MightyBoard/Motherboard/Motherboard.o
 .debug_abbrev  0x000021a7      0x507 build/mighty_one-2560/MightyBoard/Motherboard/Piezo.o
 .debug_abbrev  0x000026ae      0x206 build/mighty_one-2560/MightyBoard/Motherboard/Point.o
 .debug_abbrev  0x000028b4      0x576 build/mighty_one-2560/MightyBoard/Motherboard/SDCard.o
 .debug_abbrev  0x00002e2a      0x179 build/mighty_one-2560/MightyBoard/Motherboard/SkewTilt.o
 .debug_abbrev  0x00002fa3      0x2de build/mighty_one-2560/MightyBoard/Motherboard/SoftI2cManager.o
 .debug_abbrev  0x00003281      0x542 build/mighty_one-2560/MightyBoard/Motherboard/StepperAccel.o
 .debug_abbrev  0x000037c3      0x487 build/mighty_one-2560/MightyBoard/Motherboard/StepperAccelPlanner.o
 .debug_abbrev  0x00003c4a      0x370 build/mighty_one-2560/MightyBoard/Motherboard/StepperAxis.o
 .debug_abbrev  0x00003fba      0x53b build/mighty_one-2560/MightyBoard/Motherboard/Steppers.o
 .debug_abbrev  0x000044f5       0xe7 build/mighty_one-2560/MightyBoard/Motherboard/TWI.o
 .debug_abbrev  0x000045dc      0x32b build/mighty_one-2560/MightyBoard/Motherboard/UtilityScripts.o
 .debug_abbrev  0x00004907      0x299 build/mighty_one-2560/MightyBoard/Motherboard/boards/mighty_one/ButtonArray.o
 .debug_abbrev  0x00004ba0      0x1fb build/mighty_one-2560/MightyBoard/Motherboard/boards/mighty_one/Cutoff.o
 .debug_abbrev  0x00004d9b      0x433 build/mighty_one-2560/MightyBoard/Motherboard/boards/mighty_one/ExtruderBoard.o
 .debug_abbrev  0x000051ce      0x372 build/mighty_one-2560/MightyBoard/Motherboard/boards/mighty_one/RGB_LED.o
 .debug_abbrev  0x00005540      0x3ca build/mighty_one-2560/MightyBoard/Motherboard/lib_sd/fat.o
 .debug_abbrev  0x0000590a      0x209 build/mighty_one-2560/MightyBoard/Motherboard/lib_sd/partition.o
 .debug_abbrev  0x00005b13       0xdf build/mighty_one-2560/MightyBoard/Motherboard/lib_sd/sd_crc.o
 .debug_abbrev  0x00005bf2      0x3b6 build/mighty_one-2560/MightyBoard/Motherboard/lib_sd/sd_raw.o
 .debug_abbrev  0x00005fa8      0x127 build/mighty_one-2560/MightyBoard/shared/AnalogPin.o
 .debug_abbrev  0x000060cf      0x20d build/mighty_one-2560/MightyBoard/shared/AvrPort.o
 .debug_abbrev  0x000062dc      0x354 build/mighty_one-2560/MightyBoard/shared/CoolingFan.o
 .debug_abbrev  0x00006630      0x3ae build/mighty_one-2560/MightyBoard/shared/DigiPots.o
 .debug_abbrev  0x000069de      0x390 build/mighty_one-2560/MightyBoard/shared/Eeprom.o
 .debug_abbrev  0x00006d6e      0x64b build/mighty_one-2560/MightyBoard/shared/Heater.o
 .debug_abbrev  0x000073b9      0x454 build/mighty_one-2560/MightyBoard/shared/Interface.o
 .debug_abbrev  0x0000780d      0x5cb build/mighty_one-2560/MightyBoard/shared/InterfaceBoard.o
 .debug_abbrev  0x00007dd8      0x433 build/mighty_one-2560/MightyBoard/shared/LiquidCrystalSerial.o
 .debug_abbrev  0x0000820b      0x9b1 build/mighty_one-2560/MightyBoard/shared/Menu.o
 .debug_abbrev  0x00008bbc      0x1c5 build/mighty_one-2560/MightyBoard/shared/PID.o
 .debug_abbrev  0x00008d81      0x1ee build/mighty_one-2560/MightyBoard/shared/PSU.o
 .debug_abbrev  0x00008f6f      0x31a build/mighty_one-2560/MightyBoard/shared/Packet.o
 .debug_abbrev  0x00009289      0x1de build/mighty_one-2560/MightyBoard/shared/Pin.o
 .debug_abbrev  0x00009467      0x27e build/mighty_one-2560/MightyBoard/shared/Thermistor.o
 .debug_abbrev  0x000096e5      0x2c9 build/mighty_one-2560/MightyBoard/shared/Thermocouple.o
 .debug_abbrev  0x000099ae      0x52e build/mighty_one-2560/MightyBoard/shared/Timeout.o
 .debug_abbrev  0x00009edc      0x3b9 build/mighty_one-2560/MightyBoard/shared/UART.o
 .debug_abbrev  0x0000a295      0x151 build/mighty_one-2560/MightyBoard/Motherboard/avrfix/avrfix.o
 .debug_abbrev  0x0000a3e6       0x14 /home/jin/local/avr/lib/gcc/avr/4.6.3/avr6/libgcc.a(_mulsi3.o)
 .debug_abbrev  0x0000a3fa       0x14 /home/jin/local/avr/lib/gcc/avr/4.6.3/avr6/libgcc.a(_udivmodqi4.o)
 .debug_abbrev  0x0000a40e       0x14 /home/jin/local/avr/lib/gcc/avr/4.6.3/avr6/libgcc.a(_udivmodhi4.o)
 .debug_abbrev  0x0000a422       0x14 /home/jin/local/avr/lib/gcc/avr/4.6.3/avr6/libgcc.a(_divmodhi4.o)
 .debug_abbrev  0x0000a436       0x14 /home/jin/local/avr/lib/gcc/avr/4.6.3/avr6/libgcc.a(_udivmodsi4.o)
 .debug_abbrev  0x0000a44a       0x14 /home/jin/local/avr/lib/gcc/avr/4.6.3/avr6/libgcc.a(_divmodsi4.o)
 .debug_abbrev  0x0000a45e       0x14 /home/jin/local/avr/lib/gcc/avr/4.6.3/avr6/libgcc.a(_exit.o)
 .debug_abbrev  0x0000a472       0x14 /home/jin/local/avr/lib/gcc/avr/4.6.3/avr6/libgcc.a(_copy_data.o)
 .debug_abbrev  0x0000a486       0x14 /home/jin/local/avr/lib/gcc/avr/4.6.3/avr6/libgcc.a(_clear_bss.o)
 .debug_abbrev  0x0000a49a       0x14 /home/jin/local/avr/lib/gcc/avr/4.6.3/avr6/libgcc.a(_ctors.o)
 .debug_abbrev  0x0000a4ae       0xf0 /home/jin/local/avr/lib/gcc/avr/4.6.3/avr6/libgcc.a(_muldi3.o)
 .debug_abbrev  0x0000a59e       0xf0 /home/jin/local/avr/lib/gcc/avr/4.6.3/avr6/libgcc.a(_lshrdi3.o)
 .debug_abbrev  0x0000a68e       0xf0 /home/jin/local/avr/lib/gcc/avr/4.6.3/avr6/libgcc.a(_ashldi3.o)
 .debug_abbrev  0x0000a77e       0xf0 /home/jin/local/avr/lib/gcc/avr/4.6.3/avr6/libgcc.a(_ashrdi3.o)
 .debug_abbrev  0x0000a86e      0x1ae /home/jin/local/avr/lib/gcc/avr/4.6.3/avr6/libgcc.a(_divdi3.o)
 .debug_abbrev  0x0000aa1c       0x14 /home/jin/local/avr/lib/gcc/avr/4.6.3/avr6/libgcc.a(_prologue.o)
 .debug_abbrev  0x0000aa30       0x14 /home/jin/local/avr/lib/gcc/avr/4.6.3/avr6/libgcc.a(_epilogue.o)
 .debug_abbrev  0x0000aa44       0x14 /home/jin/local/avr/lib/gcc/avr/4.6.3/avr6/libgcc.a(_tablejump_elpm.o)
 .debug_abbrev  0x0000aa58       0x61 /home/jin/local/avr/lib/gcc/avr/4.6.3/avr6/libgcc.a(_clz.o)

.debug_line     0x00000000     0xc367
 *(.debug_line)
 .debug_line    0x00000000      0xfb6 build/mighty_one-2560/MightyBoard/Motherboard/Command.o
 .debug_line    0x00000fb6      0x482 build/mighty_one-2560/MightyBoard/Motherboard/EepromMap.o
 .debug_line    0x00001438      0x96d build/mighty_one-2560/MightyBoard/Motherboard/Host.o
 .debug_line    0x00001da5      0x403 build/mighty_one-2560/MightyBoard/Motherboard/Main.o
 .debug_line    0x000021a8      0x875 build/mighty_one-2560/MightyBoard/Motherboard/Motherboard.o
 .debug_line    0x00002a1d      0x3b6 build/mighty_one-2560/MightyBoard/Motherboard/Piezo.o
 .debug_line    0x00002dd3      0x16c build/mighty_one-2560/MightyBoard/Motherboard/Point.o
 .debug_line    0x00002f3f      0x4b9 build/mighty_one-2560/MightyBoard/Motherboard/SDCard.o
 .debug_line    0x000033f8      0x164 build/mighty_one-2560/MightyBoard/Motherboard/SkewTilt.o
 .debug_line    0x0000355c      0x2e3 build/mighty_one-2560/MightyBoard/Motherboard/SoftI2cManager.o
 .debug_line    0x0000383f      0x8f7 build/mighty_one-2560/MightyBoard/Motherboard/StepperAccel.o
 .debug_line    0x00004136      0x7a7 build/mighty_one-2560/MightyBoard/Motherboard/StepperAccelPlanner.o
 .debug_line    0x000048dd      0x314 build/mighty_one-2560/MightyBoard/Motherboard/StepperAxis.o
 .debug_line    0x00004bf1      0x77f build/mighty_one-2560/MightyBoard/Motherboard/Steppers.o
 .debug_line    0x00005370      0x15e build/mighty_one-2560/MightyBoard/Motherboard/TWI.o
 .debug_line    0x000054ce      0x236 build/mighty_one-2560/MightyBoard/Motherboard/UtilityScripts.o
 .debug_line    0x00005704      0x273 build/mighty_one-2560/MightyBoard/Motherboard/boards/mighty_one/ButtonArray.o
 .debug_line    0x00005977      0x1c5 build/mighty_one-2560/MightyBoard/Motherboard/boards/mighty_one/Cutoff.o
 .debug_line    0x00005b3c      0x2da build/mighty_one-2560/MightyBoard/Motherboard/boards/mighty_one/ExtruderBoard.o
 .debug_line    0x00005e16      0x318 build/mighty_one-2560/MightyBoard/Motherboard/boards/mighty_one/RGB_LED.o
 .debug_line    0x0000612e      0x985 build/mighty_one-2560/MightyBoard/Motherboard/lib_sd/fat.o
 .debug_line    0x00006ab3      0x17e build/mighty_one-2560/MightyBoard/Motherboard/lib_sd/partition.o
 .debug_line    0x00006c31       0xe6 build/mighty_one-2560/MightyBoard/Motherboard/lib_sd/sd_crc.o
 .debug_line    0x00006d17      0x4c9 build/mighty_one-2560/MightyBoard/Motherboard/lib_sd/sd_raw.o
 .debug_line    0x000071e0      0x158 build/mighty_one-2560/MightyBoard/shared/AnalogPin.o
 .debug_line    0x00007338      0x1df build/mighty_one-2560/MightyBoard/shared/AvrPort.o
 .debug_line    0x00007517      0x21d build/mighty_one-2560/MightyBoard/shared/CoolingFan.o
 .debug_line    0x00007734      0x258 build/mighty_one-2560/MightyBoard/shared/DigiPots.o
 .debug_line    0x0000798c      0x3de build/mighty_one-2560/MightyBoard/shared/Eeprom.o
 .debug_line    0x00007d6a      0x5b6 build/mighty_one-2560/MightyBoard/shared/Heater.o
 .debug_line    0x00008320      0x340 build/mighty_one-2560/MightyBoard/shared/Interface.o
 .debug_line    0x00008660      0x54c build/mighty_one-2560/MightyBoard/shared/InterfaceBoard.o
 .debug_line    0x00008bac      0x8f9 build/mighty_one-2560/MightyBoard/shared/LiquidCrystalSerial.o
 .debug_line    0x000094a5     0x150c build/mighty_one-2560/MightyBoard/shared/Menu.o
 .debug_line    0x0000a9b1      0x120 build/mighty_one-2560/MightyBoard/shared/PID.o
 .debug_line    0x0000aad1      0x109 build/mighty_one-2560/MightyBoard/shared/PSU.o
 .debug_line    0x0000abda      0x291 build/mighty_one-2560/MightyBoard/shared/Packet.o
 .debug_line    0x0000ae6b      0x13e build/mighty_one-2560/MightyBoard/shared/Pin.o
 .debug_line    0x0000afa9      0x1b9 build/mighty_one-2560/MightyBoard/shared/Thermistor.o
 .debug_line    0x0000b162      0x180 build/mighty_one-2560/MightyBoard/shared/Thermocouple.o
 .debug_line    0x0000b2e2      0x39e build/mighty_one-2560/MightyBoard/shared/Timeout.o
 .debug_line    0x0000b680      0x209 build/mighty_one-2560/MightyBoard/shared/UART.o
 .debug_line    0x0000b889      0x21a build/mighty_one-2560/MightyBoard/Motherboard/avrfix/avrfix.o
 .debug_line    0x0000baa3       0x7c /home/jin/local/avr/lib/gcc/avr/4.6.3/avr6/libgcc.a(_mulsi3.o)
 .debug_line    0x0000bb1f       0x69 /home/jin/local/avr/lib/gcc/avr/4.6.3/avr6/libgcc.a(_udivmodqi4.o)
 .debug_line    0x0000bb88       0x71 /home/jin/local/avr/lib/gcc/avr/4.6.3/avr6/libgcc.a(_udivmodhi4.o)
 .debug_line    0x0000bbf9       0x70 /home/jin/local/avr/lib/gcc/avr/4.6.3/avr6/libgcc.a(_divmodhi4.o)
 .debug_line    0x0000bc69       0x7f /home/jin/local/avr/lib/gcc/avr/4.6.3/avr6/libgcc.a(_udivmodsi4.o)
 .debug_line    0x0000bce8       0x78 /home/jin/local/avr/lib/gcc/avr/4.6.3/avr6/libgcc.a(_divmodsi4.o)
 .debug_line    0x0000bd60       0x5f /home/jin/local/avr/lib/gcc/avr/4.6.3/avr6/libgcc.a(_exit.o)
 .debug_line    0x0000bdbf       0x6a /home/jin/local/avr/lib/gcc/avr/4.6.3/avr6/libgcc.a(_copy_data.o)
 .debug_line    0x0000be29       0x65 /home/jin/local/avr/lib/gcc/avr/4.6.3/avr6/libgcc.a(_clear_bss.o)
 .debug_line    0x0000be8e       0x6c /home/jin/local/avr/lib/gcc/avr/4.6.3/avr6/libgcc.a(_ctors.o)
 .debug_line    0x0000befa       0x8d /home/jin/local/avr/lib/gcc/avr/4.6.3/avr6/libgcc.a(_muldi3.o)
 .debug_line    0x0000bf87       0x6e /home/jin/local/avr/lib/gcc/avr/4.6.3/avr6/libgcc.a(_lshrdi3.o)
 .debug_line    0x0000bff5       0x6e /home/jin/local/avr/lib/gcc/avr/4.6.3/avr6/libgcc.a(_ashldi3.o)
 .debug_line    0x0000c063       0x6e /home/jin/local/avr/lib/gcc/avr/4.6.3/avr6/libgcc.a(_ashrdi3.o)
 .debug_line    0x0000c0d1       0xef /home/jin/local/avr/lib/gcc/avr/4.6.3/avr6/libgcc.a(_divdi3.o)
 .debug_line    0x0000c1c0       0x7b /home/jin/local/avr/lib/gcc/avr/4.6.3/avr6/libgcc.a(_prologue.o)
 .debug_line    0x0000c23b       0x7a /home/jin/local/avr/lib/gcc/avr/4.6.3/avr6/libgcc.a(_epilogue.o)
 .debug_line    0x0000c2b5       0x61 /home/jin/local/avr/lib/gcc/avr/4.6.3/avr6/libgcc.a(_tablejump_elpm.o)
 .debug_line    0x0000c316       0x51 /home/jin/local/avr/lib/gcc/avr/4.6.3/avr6/libgcc.a(_clz.o)

.debug_frame    0x00000000     0x5eec
 *(.debug_frame)
 .debug_frame   0x00000000      0x594 build/mighty_one-2560/MightyBoard/Motherboard/Command.o
 .debug_frame   0x00000594      0x308 build/mighty_one-2560/MightyBoard/Motherboard/EepromMap.o
 .debug_frame   0x0000089c      0x3d8 build/mighty_one-2560/MightyBoard/Motherboard/Host.o
 .debug_frame   0x00000c74       0x74 build/mighty_one-2560/MightyBoard/Motherboard/Main.o
 .debug_frame   0x00000ce8      0x440 build/mighty_one-2560/MightyBoard/Motherboard/Motherboard.o
 .debug_frame   0x00001128      0x128 build/mighty_one-2560/MightyBoard/Motherboard/Piezo.o
 .debug_frame   0x00001250      0x1f8 build/mighty_one-2560/MightyBoard/Motherboard/Point.o
 .debug_frame   0x00001448      0x274 build/mighty_one-2560/MightyBoard/Motherboard/SDCard.o
 .debug_frame   0x000016bc      0x124 build/mighty_one-2560/MightyBoard/Motherboard/SkewTilt.o
 .debug_frame   0x000017e0      0x180 build/mighty_one-2560/MightyBoard/Motherboard/SoftI2cManager.o
 .debug_frame   0x00001960      0x1b0 build/mighty_one-2560/MightyBoard/Motherboard/StepperAccel.o
 .debug_frame   0x00001b10      0x310 build/mighty_one-2560/MightyBoard/Motherboard/StepperAccelPlanner.o
 .debug_frame   0x00001e20      0x130 build/mighty_one-2560/MightyBoard/Motherboard/StepperAxis.o
 .debug_frame   0x00001f50      0x504 build/mighty_one-2560/MightyBoard/Motherboard/Steppers.o
 .debug_frame   0x00002454       0x54 build/mighty_one-2560/MightyBoard/Motherboard/TWI.o
 .debug_frame   0x000024a8       0x84 build/mighty_one-2560/MightyBoard/Motherboard/UtilityScripts.o
 .debug_frame   0x0000252c       0xdc build/mighty_one-2560/MightyBoard/Motherboard/boards/mighty_one/ButtonArray.o
 .debug_frame   0x00002608      0x138 build/mighty_one-2560/MightyBoard/Motherboard/boards/mighty_one/Cutoff.o
 .debug_frame   0x00002740      0x134 build/mighty_one-2560/MightyBoard/Motherboard/boards/mighty_one/ExtruderBoard.o
 .debug_frame   0x00002874      0x174 build/mighty_one-2560/MightyBoard/Motherboard/boards/mighty_one/RGB_LED.o
 .debug_frame   0x000029e8      0x928 build/mighty_one-2560/MightyBoard/Motherboard/lib_sd/fat.o
 .debug_frame   0x00003310       0x94 build/mighty_one-2560/MightyBoard/Motherboard/lib_sd/partition.o
 .debug_frame   0x000033a4       0x34 build/mighty_one-2560/MightyBoard/Motherboard/lib_sd/sd_crc.o
 .debug_frame   0x000033d8      0x350 build/mighty_one-2560/MightyBoard/Motherboard/lib_sd/sd_raw.o
 .debug_frame   0x00003728       0x6c build/mighty_one-2560/MightyBoard/shared/AnalogPin.o
 .debug_frame   0x00003794       0xa4 build/mighty_one-2560/MightyBoard/shared/AvrPort.o
 .debug_frame   0x00003838       0xd8 build/mighty_one-2560/MightyBoard/shared/CoolingFan.o
 .debug_frame   0x00003910       0xc8 build/mighty_one-2560/MightyBoard/shared/DigiPots.o
 .debug_frame   0x000039d8      0x210 build/mighty_one-2560/MightyBoard/shared/Eeprom.o
 .debug_frame   0x00003be8      0x25c build/mighty_one-2560/MightyBoard/shared/Heater.o
 .debug_frame   0x00003e44       0xdc build/mighty_one-2560/MightyBoard/shared/Interface.o
 .debug_frame   0x00003f20      0x198 build/mighty_one-2560/MightyBoard/shared/InterfaceBoard.o
 .debug_frame   0x000040b8      0x838 build/mighty_one-2560/MightyBoard/shared/LiquidCrystalSerial.o
 .debug_frame   0x000048f0      0xc44 build/mighty_one-2560/MightyBoard/shared/Menu.o
 .debug_frame   0x00005534       0xd8 build/mighty_one-2560/MightyBoard/shared/PID.o
 .debug_frame   0x0000560c       0x60 build/mighty_one-2560/MightyBoard/shared/PSU.o
 .debug_frame   0x0000566c      0x14c build/mighty_one-2560/MightyBoard/shared/Packet.o
 .debug_frame   0x000057b8       0x94 build/mighty_one-2560/MightyBoard/shared/Pin.o
 .debug_frame   0x0000584c       0xbc build/mighty_one-2560/MightyBoard/shared/Thermistor.o
 .debug_frame   0x00005908       0xf0 build/mighty_one-2560/MightyBoard/shared/Thermocouple.o
 .debug_frame   0x000059f8       0xe0 build/mighty_one-2560/MightyBoard/shared/Timeout.o
 .debug_frame   0x00005ad8      0x14c build/mighty_one-2560/MightyBoard/shared/UART.o
 .debug_frame   0x00005c24      0x164 build/mighty_one-2560/MightyBoard/Motherboard/avrfix/avrfix.o
 .debug_frame   0x00005d88       0x48 /home/jin/local/avr/lib/gcc/avr/4.6.3/avr6/libgcc.a(_muldi3.o)
 .debug_frame   0x00005dd0       0x4c /home/jin/local/avr/lib/gcc/avr/4.6.3/avr6/libgcc.a(_lshrdi3.o)
 .debug_frame   0x00005e1c       0x4c /home/jin/local/avr/lib/gcc/avr/4.6.3/avr6/libgcc.a(_ashldi3.o)
 .debug_frame   0x00005e68       0x38 /home/jin/local/avr/lib/gcc/avr/4.6.3/avr6/libgcc.a(_ashrdi3.o)
 .debug_frame   0x00005ea0       0x4c /home/jin/local/avr/lib/gcc/avr/4.6.3/avr6/libgcc.a(_divdi3.o)

.debug_str      0x00000000     0xcf53
 *(.debug_str)
 .debug_str     0x00000000     0x4ce2 build/mighty_one-2560/MightyBoard/Motherboard/Command.o
                               0x51b5 (size before relaxing)
 .debug_str     0x00004ce2      0x7cb build/mighty_one-2560/MightyBoard/Motherboard/EepromMap.o
                               0x1801 (size before relaxing)
 .debug_str     0x000054ad      0xfee build/mighty_one-2560/MightyBoard/Motherboard/Host.o
                               0x4319 (size before relaxing)
 .debug_str     0x0000649b       0x97 build/mighty_one-2560/MightyBoard/Motherboard/Main.o
                               0x2b30 (size before relaxing)
 .debug_str     0x00006532      0x448 build/mighty_one-2560/MightyBoard/Motherboard/Motherboard.o
                               0x44c1 (size before relaxing)
 .debug_str     0x0000697a      0x498 build/mighty_one-2560/MightyBoard/Motherboard/Piezo.o
                               0x1786 (size before relaxing)
 .debug_str     0x00006e12       0x92 build/mighty_one-2560/MightyBoard/Motherboard/Point.o
                                0x18f (size before relaxing)
 .debug_str     0x00006ea4      0x521 build/mighty_one-2560/MightyBoard/Motherboard/SDCard.o
                               0x2595 (size before relaxing)
 .debug_str     0x000073c5      0x131 build/mighty_one-2560/MightyBoard/Motherboard/SkewTilt.o
                                0x1f5 (size before relaxing)
 .debug_str     0x000074f6       0xaf build/mighty_one-2560/MightyBoard/Motherboard/SoftI2cManager.o
                                0x562 (size before relaxing)
 .debug_str     0x000075a5      0x640 build/mighty_one-2560/MightyBoard/Motherboard/StepperAccel.o
                               0x16c2 (size before relaxing)
 .debug_str     0x00007be5      0x675 build/mighty_one-2560/MightyBoard/Motherboard/StepperAccelPlanner.o
                               0x1799 (size before relaxing)
 .debug_str     0x0000825a      0x168 build/mighty_one-2560/MightyBoard/Motherboard/StepperAxis.o
                               0x118b (size before relaxing)
 .debug_str     0x000083c2      0x7f6 build/mighty_one-2560/MightyBoard/Motherboard/Steppers.o
                               0x1be5 (size before relaxing)
 .debug_str     0x00008bb8       0xc3 build/mighty_one-2560/MightyBoard/Motherboard/TWI.o
                                0x193 (size before relaxing)
 .debug_str     0x00008c7b      0x1d3 build/mighty_one-2560/MightyBoard/Motherboard/UtilityScripts.o
                               0x1f3a (size before relaxing)
 .debug_str     0x00008e4e       0xbe build/mighty_one-2560/MightyBoard/Motherboard/boards/mighty_one/ButtonArray.o
                                0x72f (size before relaxing)
 .debug_str     0x00008f0c       0x6b build/mighty_one-2560/MightyBoard/Motherboard/boards/mighty_one/Cutoff.o
                                0x49d (size before relaxing)
 .debug_str     0x00008f77      0x11b build/mighty_one-2560/MightyBoard/Motherboard/boards/mighty_one/ExtruderBoard.o
                               0x192c (size before relaxing)
 .debug_str     0x00009092      0x2aa build/mighty_one-2560/MightyBoard/Motherboard/boards/mighty_one/RGB_LED.o
                                0xff5 (size before relaxing)
 .debug_str     0x0000933c      0x679 build/mighty_one-2560/MightyBoard/Motherboard/lib_sd/fat.o
                                0xbb7 (size before relaxing)
 .debug_str     0x000099b5       0x8f build/mighty_one-2560/MightyBoard/Motherboard/lib_sd/partition.o
                                0x4c5 (size before relaxing)
 .debug_str     0x00009a44       0x7a build/mighty_one-2560/MightyBoard/Motherboard/lib_sd/sd_crc.o
                                0x159 (size before relaxing)
 .debug_str     0x00009abe      0x2c6 build/mighty_one-2560/MightyBoard/Motherboard/lib_sd/sd_raw.o
                                0x6c3 (size before relaxing)
 .debug_str     0x00009d84       0xc9 build/mighty_one-2560/MightyBoard/shared/AnalogPin.o
                                0x1c7 (size before relaxing)
 .debug_str     0x00009e4d       0x62 build/mighty_one-2560/MightyBoard/shared/AvrPort.o
                                0x2f5 (size before relaxing)
 .debug_str     0x00009eaf       0x81 build/mighty_one-2560/MightyBoard/shared/CoolingFan.o
                               0x16af (size before relaxing)
 .debug_str     0x00009f30       0x78 build/mighty_one-2560/MightyBoard/shared/DigiPots.o
                               0x128d (size before relaxing)
 .debug_str     0x00009fa8      0x232 build/mighty_one-2560/MightyBoard/shared/Eeprom.o
                               0x13a2 (size before relaxing)
 .debug_str     0x0000a1da      0x262 build/mighty_one-2560/MightyBoard/shared/Heater.o
                               0x2d77 (size before relaxing)
 .debug_str     0x0000a43c      0x217 build/mighty_one-2560/MightyBoard/shared/Interface.o
                               0x18f5 (size before relaxing)
 .debug_str     0x0000a653       0xee build/mighty_one-2560/MightyBoard/shared/InterfaceBoard.o
                               0x2cac (size before relaxing)
 .debug_str     0x0000a741      0xa6c build/mighty_one-2560/MightyBoard/shared/LiquidCrystalSerial.o
                                0xe5b (size before relaxing)
 .debug_str     0x0000b1ad     0x1711 build/mighty_one-2560/MightyBoard/shared/Menu.o
                               0x5caa (size before relaxing)
 .debug_str     0x0000c8be       0x45 build/mighty_one-2560/MightyBoard/shared/PID.o
                                0x2c7 (size before relaxing)
 .debug_str     0x0000c903       0x7f build/mighty_one-2560/MightyBoard/shared/PSU.o
                                0x38a (size before relaxing)
 .debug_str     0x0000c982       0x5e build/mighty_one-2560/MightyBoard/shared/Packet.o
                                0x5ae (size before relaxing)
 .debug_str     0x0000c9e0       0x72 build/mighty_one-2560/MightyBoard/shared/Pin.o
                                0x378 (size before relaxing)
 .debug_str     0x0000ca52      0x145 build/mighty_one-2560/MightyBoard/shared/Thermistor.o
                                0x30f (size before relaxing)
 .debug_str     0x0000cb97       0xb9 build/mighty_one-2560/MightyBoard/shared/Thermocouple.o
                                0x4f1 (size before relaxing)
 .debug_str     0x0000cc50       0x79 build/mighty_one-2560/MightyBoard/shared/Timeout.o
                               0x2aaa (size before relaxing)
 .debug_str     0x0000ccc9       0x9b build/mighty_one-2560/MightyBoard/shared/UART.o
                                0x919 (size before relaxing)
 .debug_str     0x0000cd64       0xa9 build/mighty_one-2560/MightyBoard/Motherboard/avrfix/avrfix.o
                                0x1a7 (size before relaxing)
 .debug_str     0x0000ce0d       0xbc /home/jin/local/avr/lib/gcc/avr/4.6.3/avr6/libgcc.a(_muldi3.o)
                                0x141 (size before relaxing)
 .debug_str     0x0000cec9       0x23 /home/jin/local/avr/lib/gcc/avr/4.6.3/avr6/libgcc.a(_lshrdi3.o)
                                0x133 (size before relaxing)
 .debug_str     0x0000ceec        0xa /home/jin/local/avr/lib/gcc/avr/4.6.3/avr6/libgcc.a(_ashldi3.o)
                                0x133 (size before relaxing)
 .debug_str     0x0000cef6        0xa /home/jin/local/avr/lib/gcc/avr/4.6.3/avr6/libgcc.a(_ashrdi3.o)
                                0x133 (size before relaxing)
 .debug_str     0x0000cf00       0x53 /home/jin/local/avr/lib/gcc/avr/4.6.3/avr6/libgcc.a(_divdi3.o)
                                0x18b (size before relaxing)
 .debug_str     0x00000000       0xf6 /home/jin/local/avr/lib/gcc/avr/4.6.3/avr6/libgcc.a(_clz.o)

.debug_loc      0x00000000    0x1f78b
 *(.debug_loc)
 .debug_loc     0x00000000     0x25d8 build/mighty_one-2560/MightyBoard/Motherboard/Command.o
 .debug_loc     0x000025d8      0x859 build/mighty_one-2560/MightyBoard/Motherboard/EepromMap.o
 .debug_loc     0x00002e31     0x1564 build/mighty_one-2560/MightyBoard/Motherboard/Host.o
 .debug_loc     0x00004395       0xc2 build/mighty_one-2560/MightyBoard/Motherboard/Main.o
 .debug_loc     0x00004457      0xfb5 build/mighty_one-2560/MightyBoard/Motherboard/Motherboard.o
 .debug_loc     0x0000540c      0x38d build/mighty_one-2560/MightyBoard/Motherboard/Piezo.o
 .debug_loc     0x00005799      0x979 build/mighty_one-2560/MightyBoard/Motherboard/Point.o
 .debug_loc     0x00006112      0x746 build/mighty_one-2560/MightyBoard/Motherboard/SDCard.o
 .debug_loc     0x00006858      0x55a build/mighty_one-2560/MightyBoard/Motherboard/SkewTilt.o
 .debug_loc     0x00006db2      0x68f build/mighty_one-2560/MightyBoard/Motherboard/SoftI2cManager.o
 .debug_loc     0x00007441     0x2006 build/mighty_one-2560/MightyBoard/Motherboard/StepperAccel.o
 .debug_loc     0x00009447     0x1ec5 build/mighty_one-2560/MightyBoard/Motherboard/StepperAccelPlanner.o
 .debug_loc     0x0000b30c      0x486 build/mighty_one-2560/MightyBoard/Motherboard/StepperAxis.o
 .debug_loc     0x0000b792     0x12f3 build/mighty_one-2560/MightyBoard/Motherboard/Steppers.o
 .debug_loc     0x0000ca85      0x120 build/mighty_one-2560/MightyBoard/Motherboard/TWI.o
 .debug_loc     0x0000cba5       0x6c build/mighty_one-2560/MightyBoard/Motherboard/UtilityScripts.o
 .debug_loc     0x0000cc11      0x25a build/mighty_one-2560/MightyBoard/Motherboard/boards/mighty_one/ButtonArray.o
 .debug_loc     0x0000ce6b      0x352 build/mighty_one-2560/MightyBoard/Motherboard/boards/mighty_one/Cutoff.o
 .debug_loc     0x0000d1bd      0x495 build/mighty_one-2560/MightyBoard/Motherboard/boards/mighty_one/ExtruderBoard.o
 .debug_loc     0x0000d652      0x778 build/mighty_one-2560/MightyBoard/Motherboard/boards/mighty_one/RGB_LED.o
 .debug_loc     0x0000ddca     0x3fa5 build/mighty_one-2560/MightyBoard/Motherboard/lib_sd/fat.o
 .debug_loc     0x00011d6f      0x202 build/mighty_one-2560/MightyBoard/Motherboard/lib_sd/partition.o
 .debug_loc     0x00011f71      0x155 build/mighty_one-2560/MightyBoard/Motherboard/lib_sd/sd_crc.o
 .debug_loc     0x000120c6     0x1238 build/mighty_one-2560/MightyBoard/Motherboard/lib_sd/sd_raw.o
 .debug_loc     0x000132fe      0x150 build/mighty_one-2560/MightyBoard/shared/AnalogPin.o
 .debug_loc     0x0001344e      0x1cf build/mighty_one-2560/MightyBoard/shared/AvrPort.o
 .debug_loc     0x0001361d      0x2e5 build/mighty_one-2560/MightyBoard/shared/CoolingFan.o
 .debug_loc     0x00013902      0x279 build/mighty_one-2560/MightyBoard/shared/DigiPots.o
 .debug_loc     0x00013b7b      0x7df build/mighty_one-2560/MightyBoard/shared/Eeprom.o
 .debug_loc     0x0001435a      0xaae build/mighty_one-2560/MightyBoard/shared/Heater.o
 .debug_loc     0x00014e08       0xf6 build/mighty_one-2560/MightyBoard/shared/Interface.o
 .debug_loc     0x00014efe      0x541 build/mighty_one-2560/MightyBoard/shared/InterfaceBoard.o
 .debug_loc     0x0001543f     0x30a4 build/mighty_one-2560/MightyBoard/shared/LiquidCrystalSerial.o
 .debug_loc     0x000184e3     0x3f60 build/mighty_one-2560/MightyBoard/shared/Menu.o
 .debug_loc     0x0001c443      0x439 build/mighty_one-2560/MightyBoard/shared/PID.o
 .debug_loc     0x0001c87c       0xc1 build/mighty_one-2560/MightyBoard/shared/PSU.o
 .debug_loc     0x0001c93d      0x458 build/mighty_one-2560/MightyBoard/shared/Packet.o
 .debug_loc     0x0001cd95      0x118 build/mighty_one-2560/MightyBoard/shared/Pin.o
 .debug_loc     0x0001cead      0x2db build/mighty_one-2560/MightyBoard/shared/Thermistor.o
 .debug_loc     0x0001d188      0x2af build/mighty_one-2560/MightyBoard/shared/Thermocouple.o
 .debug_loc     0x0001d437      0x215 build/mighty_one-2560/MightyBoard/shared/Timeout.o
 .debug_loc     0x0001d64c      0x3c2 build/mighty_one-2560/MightyBoard/shared/UART.o
 .debug_loc     0x0001da0e      0x8d9 build/mighty_one-2560/MightyBoard/Motherboard/avrfix/avrfix.o
 .debug_loc     0x0001e2e7      0x1ed /home/jin/local/avr/lib/gcc/avr/4.6.3/avr6/libgcc.a(_muldi3.o)
 .debug_loc     0x0001e4d4      0x102 /home/jin/local/avr/lib/gcc/avr/4.6.3/avr6/libgcc.a(_lshrdi3.o)
 .debug_loc     0x0001e5d6      0x102 /home/jin/local/avr/lib/gcc/avr/4.6.3/avr6/libgcc.a(_ashldi3.o)
 .debug_loc     0x0001e6d8       0xce /home/jin/local/avr/lib/gcc/avr/4.6.3/avr6/libgcc.a(_ashrdi3.o)
 .debug_loc     0x0001e7a6      0xfe5 /home/jin/local/avr/lib/gcc/avr/4.6.3/avr6/libgcc.a(_divdi3.o)

.debug_macinfo
 *(.debug_macinfo)
OUTPUT(build/mighty_one-2560/mighty_one-2560_v7.7.0.elf elf32-avr)
LOAD linker stubs

.debug_ranges   0x00000000     0x2620
 .debug_ranges  0x00000000      0x3b0 build/mighty_one-2560/MightyBoard/Motherboard/Command.o
 .debug_ranges  0x000003b0       0xd8 build/mighty_one-2560/MightyBoard/Motherboard/EepromMap.o
 .debug_ranges  0x00000488      0x1c0 build/mighty_one-2560/MightyBoard/Motherboard/Host.o
 .debug_ranges  0x00000648       0x30 build/mighty_one-2560/MightyBoard/Motherboard/Main.o
 .debug_ranges  0x00000678       0xd8 build/mighty_one-2560/MightyBoard/Motherboard/Motherboard.o
 .debug_ranges  0x00000750       0x60 build/mighty_one-2560/MightyBoard/Motherboard/Piezo.o
 .debug_ranges  0x000007b0       0x48 build/mighty_one-2560/MightyBoard/Motherboard/Point.o
 .debug_ranges  0x000007f8      0x100 build/mighty_one-2560/MightyBoard/Motherboard/SDCard.o
 .debug_ranges  0x000008f8       0x38 build/mighty_one-2560/MightyBoard/Motherboard/SkewTilt.o
 .debug_ranges  0x00000930       0xd8 build/mighty_one-2560/MightyBoard/Motherboard/SoftI2cManager.o
 .debug_ranges  0x00000a08      0x428 build/mighty_one-2560/MightyBoard/Motherboard/StepperAccel.o
 .debug_ranges  0x00000e30      0x228 build/mighty_one-2560/MightyBoard/Motherboard/StepperAccelPlanner.o
 .debug_ranges  0x00001058       0x60 build/mighty_one-2560/MightyBoard/Motherboard/StepperAxis.o
 .debug_ranges  0x000010b8      0x1a8 build/mighty_one-2560/MightyBoard/Motherboard/Steppers.o
 .debug_ranges  0x00001260       0x58 build/mighty_one-2560/MightyBoard/Motherboard/TWI.o
 .debug_ranges  0x000012b8       0x40 build/mighty_one-2560/MightyBoard/Motherboard/UtilityScripts.o
 .debug_ranges  0x000012f8       0x48 build/mighty_one-2560/MightyBoard/Motherboard/boards/mighty_one/ButtonArray.o
 .debug_ranges  0x00001340       0x48 build/mighty_one-2560/MightyBoard/Motherboard/boards/mighty_one/Cutoff.o
 .debug_ranges  0x00001388       0x50 build/mighty_one-2560/MightyBoard/Motherboard/boards/mighty_one/ExtruderBoard.o
 .debug_ranges  0x000013d8       0x68 build/mighty_one-2560/MightyBoard/Motherboard/boards/mighty_one/RGB_LED.o
 .debug_ranges  0x00001440      0x2a0 build/mighty_one-2560/MightyBoard/Motherboard/lib_sd/fat.o
 .debug_ranges  0x000016e0       0x20 build/mighty_one-2560/MightyBoard/Motherboard/lib_sd/partition.o
 .debug_ranges  0x00001700       0x48 build/mighty_one-2560/MightyBoard/Motherboard/lib_sd/sd_crc.o
 .debug_ranges  0x00001748      0x1c8 build/mighty_one-2560/MightyBoard/Motherboard/lib_sd/sd_raw.o
 .debug_ranges  0x00001910       0x20 build/mighty_one-2560/MightyBoard/shared/AnalogPin.o
 .debug_ranges  0x00001930       0x50 build/mighty_one-2560/MightyBoard/shared/AvrPort.o
 .debug_ranges  0x00001980       0x68 build/mighty_one-2560/MightyBoard/shared/CoolingFan.o
 .debug_ranges  0x000019e8       0x38 build/mighty_one-2560/MightyBoard/shared/DigiPots.o
 .debug_ranges  0x00001a20       0x68 build/mighty_one-2560/MightyBoard/shared/Eeprom.o
 .debug_ranges  0x00001a88       0xc0 build/mighty_one-2560/MightyBoard/shared/Heater.o
 .debug_ranges  0x00001b48       0x60 build/mighty_one-2560/MightyBoard/shared/Interface.o
 .debug_ranges  0x00001ba8       0x88 build/mighty_one-2560/MightyBoard/shared/InterfaceBoard.o
 .debug_ranges  0x00001c30      0x310 build/mighty_one-2560/MightyBoard/shared/LiquidCrystalSerial.o
 .debug_ranges  0x00001f40      0x450 build/mighty_one-2560/MightyBoard/shared/Menu.o
 .debug_ranges  0x00002390       0x30 build/mighty_one-2560/MightyBoard/shared/PID.o
 .debug_ranges  0x000023c0       0x28 build/mighty_one-2560/MightyBoard/shared/PSU.o
 .debug_ranges  0x000023e8       0x80 build/mighty_one-2560/MightyBoard/shared/Packet.o
 .debug_ranges  0x00002468       0x48 build/mighty_one-2560/MightyBoard/shared/Pin.o
 .debug_ranges  0x000024b0       0x30 build/mighty_one-2560/MightyBoard/shared/Thermistor.o
 .debug_ranges  0x000024e0       0x38 build/mighty_one-2560/MightyBoard/shared/Thermocouple.o
 .debug_ranges  0x00002518       0x60 build/mighty_one-2560/MightyBoard/shared/Timeout.o
 .debug_ranges  0x00002578       0x48 build/mighty_one-2560/MightyBoard/shared/UART.o
 .debug_ranges  0x000025c0       0x30 build/mighty_one-2560/MightyBoard/Motherboard/avrfix/avrfix.o
 .debug_ranges  0x000025f0       0x30 /home/jin/local/avr/lib/gcc/avr/4.6.3/avr6/libgcc.a(_divdi3.o)
